
========================================================================

** ELF Header Information

    File Name: .\obj\Smpl_7seg_Keypad.axf

    Machine class: ELFCLASS32 (32-bit)
    Data encoding: ELFDATA2LSB (Little endian)
    Header version: EV_CURRENT (Current version)
    Operating System ABI: none
    ABI Version: 0
    File Type: ET_EXEC (Executable) (2)
    Machine: EM_ARM (ARM)

    Image Entry point: 0x000001a5
    Flags: EF_ARM_HASENTRY (0x05000002)

    ARM ELF revision: 5 (ABI version 2)

    Built with
    ARM C/C++ Compiler, 4.1 [Build 481]
    ARM Assembler, 4.1 [Build 481]
    ARM Linker, 4.1 [Build 481] 
    ARM Linker, 4.1 [Build 478] 

    Header size: 52 bytes (0x34)
    Program header entry size: 32 bytes (0x20)
    Section header entry size: 40 bytes (0x28)

    Program header entries: 1
    Section header entries: 16

    Program header offset: 280036 (0x000445e4)
    Section header offset: 280068 (0x00044604)

    Section header string table index: 15

========================================================================

** Program header #0 (PT_LOAD) [PF_X + PF_W + PF_R + PF_ARM_ENTRY]
    Size : 7324 bytes (4952 bytes in file)
    Virtual address: 0x00000000 (Alignment 8)


========================================================================

** Section #1 'ER_RO' (SHT_PROGBITS) [SHF_ALLOC + SHF_EXECINSTR]
    Size   : 3404 bytes (alignment 4)
    Address: 0x00000000

    $d.realdata
    RESET
    __Vectors
        0x00000000:    20000f50    P..     DCD    536874832
        0x00000004:    000001a5    ....    DCD    421
        0x00000008:    000001c5    ....    DCD    453
        0x0000000c:    000001c7    ....    DCD    455
        0x00000010:    00000000    ....    DCD    0
        0x00000014:    00000000    ....    DCD    0
        0x00000018:    00000000    ....    DCD    0
        0x0000001c:    00000000    ....    DCD    0
        0x00000020:    00000000    ....    DCD    0
        0x00000024:    00000000    ....    DCD    0
        0x00000028:    00000000    ....    DCD    0
        0x0000002c:    000001c9    ....    DCD    457
        0x00000030:    00000000    ....    DCD    0
        0x00000034:    00000000    ....    DCD    0
        0x00000038:    000001cb    ....    DCD    459
        0x0000003c:    000001cd    ....    DCD    461
        0x00000040:    000001cf    ....    DCD    463
        0x00000044:    000001cf    ....    DCD    463
        0x00000048:    00000511    ....    DCD    1297
        0x0000004c:    00000535    5...    DCD    1333
        0x00000050:    00000559    Y...    DCD    1369
        0x00000054:    00000595    ....    DCD    1429
        0x00000058:    000001cf    ....    DCD    463
        0x0000005c:    000001cf    ....    DCD    463
        0x00000060:    000001cf    ....    DCD    463
        0x00000064:    000001cf    ....    DCD    463
        0x00000068:    000001cf    ....    DCD    463
        0x0000006c:    000001cf    ....    DCD    463
        0x00000070:    000001cf    ....    DCD    463
        0x00000074:    000001cf    ....    DCD    463
        0x00000078:    000001cf    ....    DCD    463
        0x0000007c:    000001cf    ....    DCD    463
        0x00000080:    000001cf    ....    DCD    463
        0x00000084:    000001cf    ....    DCD    463
        0x00000088:    000001cf    ....    DCD    463
        0x0000008c:    000001cf    ....    DCD    463
        0x00000090:    000001cf    ....    DCD    463
        0x00000094:    000001cf    ....    DCD    463
        0x00000098:    000001cf    ....    DCD    463
        0x0000009c:    000001cf    ....    DCD    463
        0x000000a0:    000001cf    ....    DCD    463
        0x000000a4:    000001cf    ....    DCD    463
        0x000000a8:    000001cf    ....    DCD    463
        0x000000ac:    000001cf    ....    DCD    463
        0x000000b0:    000001cf    ....    DCD    463
        0x000000b4:    000001cf    ....    DCD    463
        0x000000b8:    000001cf    ....    DCD    463
        0x000000bc:    000001cf    ....    DCD    463
    $t
    !!!main
    __main
        0x000000c0:    f000f802    ....    BL       __scatterload ; 0xc8
        0x000000c4:    f000f842    ..B.    BL       __rt_entry ; 0x14c
    !!!scatter
    __scatterload
    __scatterload_rt2
    __scatterload_rt2_thumb_only
        0x000000c8:    a00c        ..      ADR      r0,{pc}+0x34 ; 0xfc
        0x000000ca:    c830        0.      LDM      r0!,{r4,r5}
        0x000000cc:    3808        .8      SUBS     r0,r0,#8
        0x000000ce:    1824        $.      ADDS     r4,r4,r0
        0x000000d0:    182d        -.      ADDS     r5,r5,r0
        0x000000d2:    46a2        .F      MOV      r10,r4
        0x000000d4:    1e67        g.      SUBS     r7,r4,#1
        0x000000d6:    46ab        .F      MOV      r11,r5
    __scatterload_null
        0x000000d8:    4654        TF      MOV      r4,r10
        0x000000da:    465d        ]F      MOV      r5,r11
        0x000000dc:    42ac        .B      CMP      r4,r5
        0x000000de:    d101        ..      BNE      0xe4 ; __scatterload_null + 12
        0x000000e0:    f000f834    ..4.    BL       __rt_entry ; 0x14c
        0x000000e4:    467e        ~F      MOV      r6,pc
        0x000000e6:    3e0f        .>      SUBS     r6,r6,#0xf
        0x000000e8:    cc0f        ..      LDM      r4!,{r0-r3}
        0x000000ea:    46b6        .F      MOV      lr,r6
        0x000000ec:    2601        .&      MOVS     r6,#1
        0x000000ee:    4233        3B      TST      r3,r6
        0x000000f0:    d000        ..      BEQ      0xf4 ; __scatterload_null + 28
        0x000000f2:    1afb        ..      SUBS     r3,r7,r3
        0x000000f4:    46a2        .F      MOV      r10,r4
        0x000000f6:    46ab        .F      MOV      r11,r5
        0x000000f8:    4333        3C      ORRS     r3,r3,r6
        0x000000fa:    4718        .G      BX       r3
    $d
        0x000000fc:    00000c30    0...    DCD    3120
        0x00000100:    00000c50    P...    DCD    3152
    $t
    !!handler_copy
    __scatterload_copy
        0x00000104:    3a10        .:      SUBS     r2,r2,#0x10
        0x00000106:    d302        ..      BCC      0x10e ; __scatterload_copy + 10
        0x00000108:    c878        x.      LDM      r0!,{r3-r6}
        0x0000010a:    c178        x.      STM      r1!,{r3-r6}
        0x0000010c:    d8fa        ..      BHI      __scatterload_copy ; 0x104
        0x0000010e:    0752        R.      LSLS     r2,r2,#29
        0x00000110:    d301        ..      BCC      0x116 ; __scatterload_copy + 18
        0x00000112:    c830        0.      LDM      r0!,{r4,r5}
        0x00000114:    c130        0.      STM      r1!,{r4,r5}
        0x00000116:    d501        ..      BPL      0x11c ; __scatterload_copy + 24
        0x00000118:    6804        .h      LDR      r4,[r0,#0]
        0x0000011a:    600c        .`      STR      r4,[r1,#0]
        0x0000011c:    4770        pG      BX       lr
        0x0000011e:    0000        ..      MOVS     r0,r0
    !!handler_zi
    __scatterload_zeroinit
        0x00000120:    2300        .#      MOVS     r3,#0
        0x00000122:    2400        .$      MOVS     r4,#0
        0x00000124:    2500        .%      MOVS     r5,#0
        0x00000126:    2600        .&      MOVS     r6,#0
        0x00000128:    3a10        .:      SUBS     r2,r2,#0x10
        0x0000012a:    d301        ..      BCC      0x130 ; __scatterload_zeroinit + 16
        0x0000012c:    c178        x.      STM      r1!,{r3-r6}
        0x0000012e:    d8fb        ..      BHI      0x128 ; __scatterload_zeroinit + 8
        0x00000130:    0752        R.      LSLS     r2,r2,#29
        0x00000132:    d300        ..      BCC      0x136 ; __scatterload_zeroinit + 22
        0x00000134:    c130        0.      STM      r1!,{r4,r5}
        0x00000136:    d500        ..      BPL      0x13a ; __scatterload_zeroinit + 26
        0x00000138:    600b        .`      STR      r3,[r1,#0]
        0x0000013a:    4770        pG      BX       lr
    .ARM.Collect$$libinit$$00000000
    __rt_lib_init
        0x0000013c:    b51f        ..      PUSH     {r0-r4,lr}
        0x0000013e:    46c0        .F      MOV      r8,r8
        0x00000140:    46c0        .F      MOV      r8,r8
    .ARM.Collect$$libinit$$00000006
    .ARM.Collect$$libinit$$00000008
    .ARM.Collect$$libinit$$00000009
    __rt_lib_init_heap_1
    __rt_lib_init_rand_2
    __rt_lib_init_user_alloc_1
        0x00000142:    f000f878    ..x.    BL       _rand_init ; 0x236
    .ARM.Collect$$libinit$$0000000A
    .ARM.Collect$$libinit$$0000000D
    .ARM.Collect$$libinit$$0000000F
    .ARM.Collect$$libinit$$00000011
    .ARM.Collect$$libinit$$00000013
    .ARM.Collect$$libinit$$00000015
    .ARM.Collect$$libinit$$00000017
    .ARM.Collect$$libinit$$00000019
    .ARM.Collect$$libinit$$0000001B
    .ARM.Collect$$libinit$$0000001D
    .ARM.Collect$$libinit$$0000001F
    .ARM.Collect$$libinit$$00000021
    .ARM.Collect$$libinit$$00000028
    .ARM.Collect$$libinit$$0000002A
    .ARM.Collect$$libinit$$0000002C
    .ARM.Collect$$libinit$$0000002E
    .ARM.Collect$$libinit$$0000002F
    __rt_lib_init_alloca_1
    __rt_lib_init_argv_1
    __rt_lib_init_atexit_1
    __rt_lib_init_clock_1
    __rt_lib_init_cpp_1
    __rt_lib_init_exceptions_1
    __rt_lib_init_fp_trap_1
    __rt_lib_init_getenv_1
    __rt_lib_init_lc_collate_1
    __rt_lib_init_lc_ctype_1
    __rt_lib_init_lc_monetary_1
    __rt_lib_init_lc_numeric_1
    __rt_lib_init_lc_time_1
    __rt_lib_init_rand_1
    __rt_lib_init_return
    __rt_lib_init_signal_1
    __rt_lib_init_stdio_1
        0x00000146:    bd1f        ..      POP      {r0-r4,pc}
    .ARM.Collect$$libshutdown$$00000000
    __rt_lib_shutdown
        0x00000148:    b510        ..      PUSH     {r4,lr}
    .ARM.Collect$$libshutdown$$00000003
    .ARM.Collect$$libshutdown$$00000006
    .ARM.Collect$$libshutdown$$00000009
    .ARM.Collect$$libshutdown$$0000000B
    .ARM.Collect$$libshutdown$$0000000E
    .ARM.Collect$$libshutdown$$0000000F
    __rt_lib_shutdown_fp_trap_1
    __rt_lib_shutdown_heap_1
    __rt_lib_shutdown_return
    __rt_lib_shutdown_signal_1
    __rt_lib_shutdown_stdio_1
    __rt_lib_shutdown_user_alloc_1
        0x0000014a:    bd10        ..      POP      {r4,pc}
    .ARM.Collect$$rtentry$$00000000
    .ARM.Collect$$rtentry$$00000002
    .ARM.Collect$$rtentry$$00000004
    __rt_entry
    __rt_entry_presh_1
    __rt_entry_sh
        0x0000014c:    f000f92c    ..,.    BL       __user_setup_stackheap ; 0x3a8
        0x00000150:    4611        .F      MOV      r1,r2
    .ARM.Collect$$rtentry$$00000009
    .ARM.Collect$$rtentry$$0000000A
    __rt_entry_li
    __rt_entry_postsh_1
        0x00000152:    f7fffff3    ....    BL       __rt_lib_init ; 0x13c
    .ARM.Collect$$rtentry$$0000000C
    .ARM.Collect$$rtentry$$0000000D
    __rt_entry_main
    __rt_entry_postli_1
        0x00000156:    f000fd69    ..i.    BL       main ; 0xc2c
        0x0000015a:    f000f944    ..D.    BL       exit ; 0x3e6
    .ARM.Collect$$rtexit$$00000000
    __rt_exit
        0x0000015e:    b403        ..      PUSH     {r0,r1}
    .ARM.Collect$$rtexit$$00000002
    .ARM.Collect$$rtexit$$00000003
    __rt_exit_ls
    __rt_exit_prels_1
        0x00000160:    f7fffff2    ....    BL       __rt_lib_shutdown ; 0x148
    .ARM.Collect$$rtexit$$00000004
    __rt_exit_exit
        0x00000164:    bc03        ..      POP      {r0,r1}
        0x00000166:    f000f949    ..I.    BL       _sys_exit ; 0x3fc
        0x0000016a:    0000        ..      MOVS     r0,r0
    .emb_text
    rand
        0x0000016c:    b430        0.      PUSH     {r4,r5}
        0x0000016e:    490c        .I      LDR      r1,[pc,#48] ; [0x1a0] = 0x20000ae8
        0x00000170:    680c        .h      LDR      r4,[r1,#0]
        0x00000172:    684a        Jh      LDR      r2,[r1,#4]
        0x00000174:    6823        #h      LDR      r3,[r4,#0]
        0x00000176:    6810        .h      LDR      r0,[r2,#0]
        0x00000178:    18c0        ..      ADDS     r0,r0,r3
        0x0000017a:    6010        .`      STR      r0,[r2,#0]
        0x0000017c:    1d24        $.      ADDS     r4,r4,#4
        0x0000017e:    1d12        ..      ADDS     r2,r2,#4
        0x00000180:    428c        .B      CMP      r4,r1
        0x00000182:    d207        ..      BCS      0x194 ; rand + 40
        0x00000184:    428a        .B      CMP      r2,r1
        0x00000186:    d208        ..      BCS      0x19a ; rand + 46
        0x00000188:    600c        .`      STR      r4,[r1,#0]
        0x0000018a:    604a        J`      STR      r2,[r1,#4]
        0x0000018c:    bc30        0.      POP      {r4,r5}
        0x0000018e:    0040        @.      LSLS     r0,r0,#1
        0x00000190:    0840        @.      LSRS     r0,r0,#1
        0x00000192:    4770        pG      BX       lr
        0x00000194:    000c        ..      MOVS     r4,r1
        0x00000196:    3cdc        .<      SUBS     r4,r4,#0xdc
        0x00000198:    e7f6        ..      B        0x188 ; rand + 28
        0x0000019a:    000a        ..      MOVS     r2,r1
        0x0000019c:    3adc        .:      SUBS     r2,r2,#0xdc
        0x0000019e:    e7f3        ..      B        0x188 ; rand + 28
    $d
        0x000001a0:    20000ae8    ...     DCD    536873704
    $t
    .text
    Reset_Handler
        0x000001a4:    480d        .H      LDR      r0,[pc,#52] ; [0x1dc] = 0x50000100
        0x000001a6:    490e        .I      LDR      r1,[pc,#56] ; [0x1e0] = 0x59
        0x000001a8:    6001        .`      STR      r1,[r0,#0]
        0x000001aa:    490e        .I      LDR      r1,[pc,#56] ; [0x1e4] = 0x16
        0x000001ac:    6001        .`      STR      r1,[r0,#0]
        0x000001ae:    490e        .I      LDR      r1,[pc,#56] ; [0x1e8] = 0x88
        0x000001b0:    6001        .`      STR      r1,[r0,#0]
        0x000001b2:    4a0e        .J      LDR      r2,[pc,#56] ; [0x1ec] = 0x50000024
        0x000001b4:    490e        .I      LDR      r1,[pc,#56] ; [0x1f0] = 0x5aa5
        0x000001b6:    6011        .`      STR      r1,[r2,#0]
        0x000001b8:    2100        .!      MOVS     r1,#0
        0x000001ba:    6001        .`      STR      r1,[r0,#0]
        0x000001bc:    480d        .H      LDR      r0,[pc,#52] ; [0x1f4] = 0xb31
        0x000001be:    4780        .G      BLX      r0
        0x000001c0:    480d        .H      LDR      r0,[pc,#52] ; [0x1f8] = 0xc1
        0x000001c2:    4700        .G      BX       r0
    NMI_Handler
        0x000001c4:    e7fe        ..      B        NMI_Handler ; 0x1c4
    HardFault_Handler
        0x000001c6:    e7fe        ..      B        HardFault_Handler ; 0x1c6
    SVC_Handler
        0x000001c8:    e7fe        ..      B        SVC_Handler ; 0x1c8
    PendSV_Handler
        0x000001ca:    e7fe        ..      B        PendSV_Handler ; 0x1ca
    SysTick_Handler
        0x000001cc:    e7fe        ..      B        SysTick_Handler ; 0x1cc
    Default_Handler
    ACMP_IRQHandler
    ADC_IRQHandler
    BOD_IRQHandler
    CAN0_IRQHandler
    I2C0_IRQHandler
    I2C1_IRQHandler
    I2S_IRQHandler
    PDMA_IRQHandler
    PS2_IRQHandler
    PWMA_IRQHandler
    PWMB_IRQHandler
    PWRWU_IRQHandler
    RTC_IRQHandler
    SPI0_IRQHandler
    SPI1_IRQHandler
    SPI2_IRQHandler
    SPI3_IRQHandler
    TMR0_IRQHandler
    TMR1_IRQHandler
    TMR2_IRQHandler
    TMR3_IRQHandler
    UART02_IRQHandler
    UART1_IRQHandler
    USBD_IRQHandler
    WDT_IRQHandler
        0x000001ce:    e7fe        ..      B        Default_Handler ; 0x1ce
    __user_initial_stackheap
        0x000001d0:    480a        .H      LDR      r0,[pc,#40] ; [0x1fc] = 0x20000b50
        0x000001d2:    490b        .I      LDR      r1,[pc,#44] ; [0x200] = 0x20000f50
        0x000001d4:    4a09        .J      LDR      r2,[pc,#36] ; [0x1fc] = 0x20000b50
        0x000001d6:    4b0b        .K      LDR      r3,[pc,#44] ; [0x204] = 0x20000b50
        0x000001d8:    4770        pG      BX       lr
    $d
        0x000001da:    0000        ..      DCW    0
        0x000001dc:    50000100    ...P    DCD    1342177536
        0x000001e0:    00000059    Y...    DCD    89
        0x000001e4:    00000016    ....    DCD    22
        0x000001e8:    00000088    ....    DCD    136
        0x000001ec:    50000024    $..P    DCD    1342177316
        0x000001f0:    00005aa5    .Z..    DCD    23205
        0x000001f4:    00000b31    1...    DCD    2865
        0x000001f8:    000000c1    ....    DCD    193
        0x000001fc:    20000b50    P..     DCD    536873808
        0x00000200:    20000f50    P..     DCD    536874832
        0x00000204:    20000b50    P..     DCD    536873808
    $t
    .text
    srand
        0x00000208:    4a0c        .J      LDR      r2,[pc,#48] ; [0x23c] = 0x20000a88
        0x0000020a:    b530        0.      PUSH     {r4,r5,lr}
        0x0000020c:    4611        .F      MOV      r1,r2
        0x0000020e:    4c0c        .L      LDR      r4,[pc,#48] ; [0x240] = 0x66d619e1
        0x00000210:    3144        D1      ADDS     r1,r1,#0x44
        0x00000212:    460b        .F      MOV      r3,r1
        0x00000214:    3bc0        .;      SUBS     r3,r3,#0xc0
        0x00000216:    620b        .b      STR      r3,[r1,#0x20]
        0x00000218:    61ca        .a      STR      r2,[r1,#0x1c]
        0x0000021a:    2137        7!      MOVS     r1,#0x37
        0x0000021c:    e006        ..      B        0x22c ; srand + 36
        0x0000021e:    0c02        ..      LSRS     r2,r0,#16
        0x00000220:    008d        ..      LSLS     r5,r1,#2
        0x00000222:    1812        ..      ADDS     r2,r2,r0
        0x00000224:    515a        ZQ      STR      r2,[r3,r5]
        0x00000226:    4a07        .J      LDR      r2,[pc,#28] ; [0x244] = 0x10dcd
        0x00000228:    4350        PC      MULS     r0,r2,r0
        0x0000022a:    1900        ..      ADDS     r0,r0,r4
        0x0000022c:    460a        .F      MOV      r2,r1
        0x0000022e:    1e49        I.      SUBS     r1,r1,#1
        0x00000230:    2a00        .*      CMP      r2,#0
        0x00000232:    dcf4        ..      BGT      0x21e ; srand + 22
        0x00000234:    bd30        0.      POP      {r4,r5,pc}
    _rand_init
        0x00000236:    2001        .       MOVS     r0,#1
        0x00000238:    e7e6        ..      B        srand ; 0x208
    $d
        0x0000023a:    0000        ..      DCW    0
        0x0000023c:    20000a88    ...     DCD    536873608
        0x00000240:    66d619e1    ...f    DCD    1725307361
        0x00000244:    00010dcd    ....    DCD    69069
    $t
    .text
    __aeabi_uidiv
    __aeabi_uidivmod
        0x00000248:    2200        ."      MOVS     r2,#0
        0x0000024a:    0903        ..      LSRS     r3,r0,#4
        0x0000024c:    428b        .B      CMP      r3,r1
        0x0000024e:    d32c        ,.      BCC      0x2aa ; __aeabi_idiv + 78
        0x00000250:    0a03        ..      LSRS     r3,r0,#8
        0x00000252:    428b        .B      CMP      r3,r1
        0x00000254:    d311        ..      BCC      0x27a ; __aeabi_idiv + 30
        0x00000256:    2300        .#      MOVS     r3,#0
        0x00000258:    469c        .F      MOV      r12,r3
        0x0000025a:    e04e        N.      B        0x2fa ; __aeabi_idiv + 158
    __aeabi_idiv
    __aeabi_idivmod
        0x0000025c:    4603        .F      MOV      r3,r0
        0x0000025e:    430b        .C      ORRS     r3,r3,r1
        0x00000260:    d43c        <.      BMI      0x2dc ; __aeabi_idiv + 128
        0x00000262:    2200        ."      MOVS     r2,#0
        0x00000264:    0843        C.      LSRS     r3,r0,#1
        0x00000266:    428b        .B      CMP      r3,r1
        0x00000268:    d331        1.      BCC      0x2ce ; __aeabi_idiv + 114
        0x0000026a:    0903        ..      LSRS     r3,r0,#4
        0x0000026c:    428b        .B      CMP      r3,r1
        0x0000026e:    d31c        ..      BCC      0x2aa ; __aeabi_idiv + 78
        0x00000270:    0a03        ..      LSRS     r3,r0,#8
        0x00000272:    428b        .B      CMP      r3,r1
        0x00000274:    d301        ..      BCC      0x27a ; __aeabi_idiv + 30
        0x00000276:    4694        .F      MOV      r12,r2
        0x00000278:    e03f        ?.      B        0x2fa ; __aeabi_idiv + 158
        0x0000027a:    09c3        ..      LSRS     r3,r0,#7
        0x0000027c:    428b        .B      CMP      r3,r1
        0x0000027e:    d301        ..      BCC      0x284 ; __aeabi_idiv + 40
        0x00000280:    01cb        ..      LSLS     r3,r1,#7
        0x00000282:    1ac0        ..      SUBS     r0,r0,r3
        0x00000284:    4152        RA      ADCS     r2,r2,r2
        0x00000286:    0983        ..      LSRS     r3,r0,#6
        0x00000288:    428b        .B      CMP      r3,r1
        0x0000028a:    d301        ..      BCC      0x290 ; __aeabi_idiv + 52
        0x0000028c:    018b        ..      LSLS     r3,r1,#6
        0x0000028e:    1ac0        ..      SUBS     r0,r0,r3
        0x00000290:    4152        RA      ADCS     r2,r2,r2
        0x00000292:    0943        C.      LSRS     r3,r0,#5
        0x00000294:    428b        .B      CMP      r3,r1
        0x00000296:    d301        ..      BCC      0x29c ; __aeabi_idiv + 64
        0x00000298:    014b        K.      LSLS     r3,r1,#5
        0x0000029a:    1ac0        ..      SUBS     r0,r0,r3
        0x0000029c:    4152        RA      ADCS     r2,r2,r2
        0x0000029e:    0903        ..      LSRS     r3,r0,#4
        0x000002a0:    428b        .B      CMP      r3,r1
        0x000002a2:    d301        ..      BCC      0x2a8 ; __aeabi_idiv + 76
        0x000002a4:    010b        ..      LSLS     r3,r1,#4
        0x000002a6:    1ac0        ..      SUBS     r0,r0,r3
        0x000002a8:    4152        RA      ADCS     r2,r2,r2
        0x000002aa:    08c3        ..      LSRS     r3,r0,#3
        0x000002ac:    428b        .B      CMP      r3,r1
        0x000002ae:    d301        ..      BCC      0x2b4 ; __aeabi_idiv + 88
        0x000002b0:    00cb        ..      LSLS     r3,r1,#3
        0x000002b2:    1ac0        ..      SUBS     r0,r0,r3
        0x000002b4:    4152        RA      ADCS     r2,r2,r2
        0x000002b6:    0883        ..      LSRS     r3,r0,#2
        0x000002b8:    428b        .B      CMP      r3,r1
        0x000002ba:    d301        ..      BCC      0x2c0 ; __aeabi_idiv + 100
        0x000002bc:    008b        ..      LSLS     r3,r1,#2
        0x000002be:    1ac0        ..      SUBS     r0,r0,r3
        0x000002c0:    4152        RA      ADCS     r2,r2,r2
        0x000002c2:    0843        C.      LSRS     r3,r0,#1
        0x000002c4:    428b        .B      CMP      r3,r1
        0x000002c6:    d301        ..      BCC      0x2cc ; __aeabi_idiv + 112
        0x000002c8:    004b        K.      LSLS     r3,r1,#1
        0x000002ca:    1ac0        ..      SUBS     r0,r0,r3
        0x000002cc:    4152        RA      ADCS     r2,r2,r2
        0x000002ce:    1a41        A.      SUBS     r1,r0,r1
        0x000002d0:    d200        ..      BCS      0x2d4 ; __aeabi_idiv + 120
        0x000002d2:    4601        .F      MOV      r1,r0
        0x000002d4:    4152        RA      ADCS     r2,r2,r2
        0x000002d6:    4610        .F      MOV      r0,r2
        0x000002d8:    4770        pG      BX       lr
        0x000002da:    e05d        ].      B        0x398 ; __aeabi_idiv + 316
        0x000002dc:    0fca        ..      LSRS     r2,r1,#31
        0x000002de:    d000        ..      BEQ      0x2e2 ; __aeabi_idiv + 134
        0x000002e0:    4249        IB      RSBS     r1,r1,#0
        0x000002e2:    1003        ..      ASRS     r3,r0,#32
        0x000002e4:    d300        ..      BCC      0x2e8 ; __aeabi_idiv + 140
        0x000002e6:    4240        @B      RSBS     r0,r0,#0
        0x000002e8:    4053        S@      EORS     r3,r3,r2
        0x000002ea:    2200        ."      MOVS     r2,#0
        0x000002ec:    469c        .F      MOV      r12,r3
        0x000002ee:    0903        ..      LSRS     r3,r0,#4
        0x000002f0:    428b        .B      CMP      r3,r1
        0x000002f2:    d32d        -.      BCC      0x350 ; __aeabi_idiv + 244
        0x000002f4:    0a03        ..      LSRS     r3,r0,#8
        0x000002f6:    428b        .B      CMP      r3,r1
        0x000002f8:    d312        ..      BCC      0x320 ; __aeabi_idiv + 196
        0x000002fa:    22fc        ."      MOVS     r2,#0xfc
        0x000002fc:    0189        ..      LSLS     r1,r1,#6
        0x000002fe:    ba12        ..      REV      r2,r2
        0x00000300:    0a03        ..      LSRS     r3,r0,#8
        0x00000302:    428b        .B      CMP      r3,r1
        0x00000304:    d30c        ..      BCC      0x320 ; __aeabi_idiv + 196
        0x00000306:    0189        ..      LSLS     r1,r1,#6
        0x00000308:    1192        ..      ASRS     r2,r2,#6
        0x0000030a:    428b        .B      CMP      r3,r1
        0x0000030c:    d308        ..      BCC      0x320 ; __aeabi_idiv + 196
        0x0000030e:    0189        ..      LSLS     r1,r1,#6
        0x00000310:    1192        ..      ASRS     r2,r2,#6
        0x00000312:    428b        .B      CMP      r3,r1
        0x00000314:    d304        ..      BCC      0x320 ; __aeabi_idiv + 196
        0x00000316:    0189        ..      LSLS     r1,r1,#6
        0x00000318:    d03a        :.      BEQ      0x390 ; __aeabi_idiv + 308
        0x0000031a:    1192        ..      ASRS     r2,r2,#6
        0x0000031c:    e000        ..      B        0x320 ; __aeabi_idiv + 196
        0x0000031e:    0989        ..      LSRS     r1,r1,#6
        0x00000320:    09c3        ..      LSRS     r3,r0,#7
        0x00000322:    428b        .B      CMP      r3,r1
        0x00000324:    d301        ..      BCC      0x32a ; __aeabi_idiv + 206
        0x00000326:    01cb        ..      LSLS     r3,r1,#7
        0x00000328:    1ac0        ..      SUBS     r0,r0,r3
        0x0000032a:    4152        RA      ADCS     r2,r2,r2
        0x0000032c:    0983        ..      LSRS     r3,r0,#6
        0x0000032e:    428b        .B      CMP      r3,r1
        0x00000330:    d301        ..      BCC      0x336 ; __aeabi_idiv + 218
        0x00000332:    018b        ..      LSLS     r3,r1,#6
        0x00000334:    1ac0        ..      SUBS     r0,r0,r3
        0x00000336:    4152        RA      ADCS     r2,r2,r2
        0x00000338:    0943        C.      LSRS     r3,r0,#5
        0x0000033a:    428b        .B      CMP      r3,r1
        0x0000033c:    d301        ..      BCC      0x342 ; __aeabi_idiv + 230
        0x0000033e:    014b        K.      LSLS     r3,r1,#5
        0x00000340:    1ac0        ..      SUBS     r0,r0,r3
        0x00000342:    4152        RA      ADCS     r2,r2,r2
        0x00000344:    0903        ..      LSRS     r3,r0,#4
        0x00000346:    428b        .B      CMP      r3,r1
        0x00000348:    d301        ..      BCC      0x34e ; __aeabi_idiv + 242
        0x0000034a:    010b        ..      LSLS     r3,r1,#4
        0x0000034c:    1ac0        ..      SUBS     r0,r0,r3
        0x0000034e:    4152        RA      ADCS     r2,r2,r2
        0x00000350:    08c3        ..      LSRS     r3,r0,#3
        0x00000352:    428b        .B      CMP      r3,r1
        0x00000354:    d301        ..      BCC      0x35a ; __aeabi_idiv + 254
        0x00000356:    00cb        ..      LSLS     r3,r1,#3
        0x00000358:    1ac0        ..      SUBS     r0,r0,r3
        0x0000035a:    4152        RA      ADCS     r2,r2,r2
        0x0000035c:    0883        ..      LSRS     r3,r0,#2
        0x0000035e:    428b        .B      CMP      r3,r1
        0x00000360:    d301        ..      BCC      0x366 ; __aeabi_idiv + 266
        0x00000362:    008b        ..      LSLS     r3,r1,#2
        0x00000364:    1ac0        ..      SUBS     r0,r0,r3
        0x00000366:    4152        RA      ADCS     r2,r2,r2
        0x00000368:    d2d9        ..      BCS      0x31e ; __aeabi_idiv + 194
        0x0000036a:    0843        C.      LSRS     r3,r0,#1
        0x0000036c:    428b        .B      CMP      r3,r1
        0x0000036e:    d301        ..      BCC      0x374 ; __aeabi_idiv + 280
        0x00000370:    004b        K.      LSLS     r3,r1,#1
        0x00000372:    1ac0        ..      SUBS     r0,r0,r3
        0x00000374:    4152        RA      ADCS     r2,r2,r2
        0x00000376:    1a41        A.      SUBS     r1,r0,r1
        0x00000378:    d200        ..      BCS      0x37c ; __aeabi_idiv + 288
        0x0000037a:    4601        .F      MOV      r1,r0
        0x0000037c:    4663        cF      MOV      r3,r12
        0x0000037e:    4152        RA      ADCS     r2,r2,r2
        0x00000380:    105b        [.      ASRS     r3,r3,#1
        0x00000382:    4610        .F      MOV      r0,r2
        0x00000384:    d301        ..      BCC      0x38a ; __aeabi_idiv + 302
        0x00000386:    4240        @B      RSBS     r0,r0,#0
        0x00000388:    2b00        .+      CMP      r3,#0
        0x0000038a:    d500        ..      BPL      0x38e ; __aeabi_idiv + 306
        0x0000038c:    4249        IB      RSBS     r1,r1,#0
        0x0000038e:    4770        pG      BX       lr
        0x00000390:    4663        cF      MOV      r3,r12
        0x00000392:    105b        [.      ASRS     r3,r3,#1
        0x00000394:    d300        ..      BCC      0x398 ; __aeabi_idiv + 316
        0x00000396:    4240        @B      RSBS     r0,r0,#0
        0x00000398:    b501        ..      PUSH     {r0,lr}
        0x0000039a:    2000        .       MOVS     r0,#0
        0x0000039c:    46c0        .F      MOV      r8,r8
        0x0000039e:    46c0        .F      MOV      r8,r8
        0x000003a0:    bd02        ..      POP      {r1,pc}
    .text
    __use_two_region_memory
        0x000003a2:    4770        pG      BX       lr
    __rt_heap_escrow$2region
        0x000003a4:    4770        pG      BX       lr
    __rt_heap_expand$2region
        0x000003a6:    4770        pG      BX       lr
    .text
    __user_setup_stackheap
        0x000003a8:    4675        uF      MOV      r5,lr
        0x000003aa:    f000f823    ..#.    BL       __user_libspace ; 0x3f4
        0x000003ae:    46ae        .F      MOV      lr,r5
        0x000003b0:    0005        ..      MOVS     r5,r0
        0x000003b2:    4669        iF      MOV      r1,sp
        0x000003b4:    4653        SF      MOV      r3,r10
        0x000003b6:    08c0        ..      LSRS     r0,r0,#3
        0x000003b8:    00c0        ..      LSLS     r0,r0,#3
        0x000003ba:    4685        .F      MOV      sp,r0
        0x000003bc:    b018        ..      ADD      sp,sp,#0x60
        0x000003be:    b520         .      PUSH     {r5,lr}
        0x000003c0:    f7ffff06    ....    BL       __user_initial_stackheap ; 0x1d0
        0x000003c4:    bc60        `.      POP      {r5,r6}
        0x000003c6:    2700        .'      MOVS     r7,#0
        0x000003c8:    0849        I.      LSRS     r1,r1,#1
        0x000003ca:    46b6        .F      MOV      lr,r6
        0x000003cc:    2600        .&      MOVS     r6,#0
        0x000003ce:    c5c0        ..      STM      r5!,{r6,r7}
        0x000003d0:    c5c0        ..      STM      r5!,{r6,r7}
        0x000003d2:    c5c0        ..      STM      r5!,{r6,r7}
        0x000003d4:    c5c0        ..      STM      r5!,{r6,r7}
        0x000003d6:    c5c0        ..      STM      r5!,{r6,r7}
        0x000003d8:    c5c0        ..      STM      r5!,{r6,r7}
        0x000003da:    c5c0        ..      STM      r5!,{r6,r7}
        0x000003dc:    c5c0        ..      STM      r5!,{r6,r7}
        0x000003de:    3d40        @=      SUBS     r5,r5,#0x40
        0x000003e0:    0049        I.      LSLS     r1,r1,#1
        0x000003e2:    468d        .F      MOV      sp,r1
        0x000003e4:    4770        pG      BX       lr
    .text
    exit
        0x000003e6:    4604        .F      MOV      r4,r0
        0x000003e8:    46c0        .F      MOV      r8,r8
        0x000003ea:    46c0        .F      MOV      r8,r8
        0x000003ec:    4620         F      MOV      r0,r4
        0x000003ee:    f7fffeb6    ....    BL       __rt_exit ; 0x15e
        0x000003f2:    0000        ..      MOVS     r0,r0
    .text
    __user_libspace
    __user_perproc_libspace
    __user_perthread_libspace
        0x000003f4:    4800        .H      LDR      r0,[pc,#0] ; [0x3f8] = 0x20000af0
        0x000003f6:    4770        pG      BX       lr
    $d
        0x000003f8:    20000af0    ...     DCD    536873712
    $t
    .text
    _sys_exit
        0x000003fc:    4901        .I      LDR      r1,[pc,#4] ; [0x404] = 0x20026
        0x000003fe:    2018        .       MOVS     r0,#0x18
        0x00000400:    beab        ..      BKPT     #0xab
        0x00000402:    e7fe        ..      B        0x402 ; _sys_exit + 6
    $d
        0x00000404:    00020026    &...    DCD    131110
    $t
    .text
    __I$use$semihosting
    __use_no_semihosting_swi
        0x00000408:    4770        pG      BX       lr
    i.Delay
    Delay
        0x0000040a:    bf00        ..      NOP      
        0x0000040c:    4601        .F      MOV      r1,r0
        0x0000040e:    1e40        @.      SUBS     r0,r0,#1
        0x00000410:    2900        .)      CMP      r1,#0
        0x00000412:    d1fb        ..      BNE      0x40c ; Delay + 2
        0x00000414:    4770        pG      BX       lr
        0x00000416:    0000        ..      MOVS     r0,r0
    i.DrvGPIO_ClrBit
    DrvGPIO_ClrBit
        0x00000418:    b510        ..      PUSH     {r4,lr}
        0x0000041a:    4603        .F      MOV      r3,r0
        0x0000041c:    2900        .)      CMP      r1,#0
        0x0000041e:    db01        ..      BLT      0x424 ; DrvGPIO_ClrBit + 12
        0x00000420:    2910        .)      CMP      r1,#0x10
        0x00000422:    dd01        ..      BLE      0x428 ; DrvGPIO_ClrBit + 16
        0x00000424:    4805        .H      LDR      r0,[pc,#20] ; [0x43c] = 0xffff8901
        0x00000426:    bd10        ..      POP      {r4,pc}
        0x00000428:    0198        ..      LSLS     r0,r3,#6
        0x0000042a:    4c05        .L      LDR      r4,[pc,#20] ; [0x440] = 0x50004000
        0x0000042c:    1902        ..      ADDS     r2,r0,r4
        0x0000042e:    6890        .h      LDR      r0,[r2,#8]
        0x00000430:    2401        .$      MOVS     r4,#1
        0x00000432:    408c        .@      LSLS     r4,r4,r1
        0x00000434:    43a0        .C      BICS     r0,r0,r4
        0x00000436:    6090        .`      STR      r0,[r2,#8]
        0x00000438:    2000        .       MOVS     r0,#0
        0x0000043a:    e7f4        ..      B        0x426 ; DrvGPIO_ClrBit + 14
    $d
        0x0000043c:    ffff8901    ....    DCD    4294936833
        0x00000440:    50004000    .@.P    DCD    1342193664
    $t
    i.DrvGPIO_GetBit
    DrvGPIO_GetBit
        0x00000444:    b510        ..      PUSH     {r4,lr}
        0x00000446:    4602        .F      MOV      r2,r0
        0x00000448:    2900        .)      CMP      r1,#0
        0x0000044a:    db01        ..      BLT      0x450 ; DrvGPIO_GetBit + 12
        0x0000044c:    2910        .)      CMP      r1,#0x10
        0x0000044e:    dd01        ..      BLE      0x454 ; DrvGPIO_GetBit + 16
        0x00000450:    4804        .H      LDR      r0,[pc,#16] ; [0x464] = 0xffff8901
        0x00000452:    bd10        ..      POP      {r4,pc}
        0x00000454:    4804        .H      LDR      r0,[pc,#16] ; [0x468] = 0x50004010
        0x00000456:    0194        ..      LSLS     r4,r2,#6
        0x00000458:    1903        ..      ADDS     r3,r0,r4
        0x0000045a:    6818        .h      LDR      r0,[r3,#0]
        0x0000045c:    40c8        .@      LSRS     r0,r0,r1
        0x0000045e:    07c0        ..      LSLS     r0,r0,#31
        0x00000460:    0fc0        ..      LSRS     r0,r0,#31
        0x00000462:    e7f6        ..      B        0x452 ; DrvGPIO_GetBit + 14
    $d
        0x00000464:    ffff8901    ....    DCD    4294936833
        0x00000468:    50004010    .@.P    DCD    1342193680
    $t
    i.DrvGPIO_Open
    DrvGPIO_Open
        0x0000046c:    b570        p.      PUSH     {r4-r6,lr}
        0x0000046e:    4604        .F      MOV      r4,r0
        0x00000470:    460b        .F      MOV      r3,r1
        0x00000472:    2b00        .+      CMP      r3,#0
        0x00000474:    db01        ..      BLT      0x47a ; DrvGPIO_Open + 14
        0x00000476:    2b10        .+      CMP      r3,#0x10
        0x00000478:    dd01        ..      BLE      0x47e ; DrvGPIO_Open + 18
        0x0000047a:    4818        .H      LDR      r0,[pc,#96] ; [0x4dc] = 0xffff8901
        0x0000047c:    bd70        p.      POP      {r4-r6,pc}
        0x0000047e:    01a0        ..      LSLS     r0,r4,#6
        0x00000480:    4d17        .M      LDR      r5,[pc,#92] ; [0x4e0] = 0x50004000
        0x00000482:    1941        A.      ADDS     r1,r0,r5
        0x00000484:    2a00        .*      CMP      r2,#0
        0x00000486:    d003        ..      BEQ      0x490 ; DrvGPIO_Open + 36
        0x00000488:    2a01        .*      CMP      r2,#1
        0x0000048a:    d001        ..      BEQ      0x490 ; DrvGPIO_Open + 36
        0x0000048c:    2a02        .*      CMP      r2,#2
        0x0000048e:    d117        ..      BNE      0x4c0 ; DrvGPIO_Open + 84
        0x00000490:    6808        .h      LDR      r0,[r1,#0]
        0x00000492:    005e        ^.      LSLS     r6,r3,#1
        0x00000494:    2503        .%      MOVS     r5,#3
        0x00000496:    40b5        .@      LSLS     r5,r5,r6
        0x00000498:    43a8        .C      BICS     r0,r0,r5
        0x0000049a:    6008        .`      STR      r0,[r1,#0]
        0x0000049c:    2a01        .*      CMP      r2,#1
        0x0000049e:    d106        ..      BNE      0x4ae ; DrvGPIO_Open + 66
        0x000004a0:    6808        .h      LDR      r0,[r1,#0]
        0x000004a2:    005e        ^.      LSLS     r6,r3,#1
        0x000004a4:    2501        .%      MOVS     r5,#1
        0x000004a6:    40b5        .@      LSLS     r5,r5,r6
        0x000004a8:    4328        (C      ORRS     r0,r0,r5
        0x000004aa:    6008        .`      STR      r0,[r1,#0]
        0x000004ac:    e013        ..      B        0x4d6 ; DrvGPIO_Open + 106
        0x000004ae:    2a02        .*      CMP      r2,#2
        0x000004b0:    d111        ..      BNE      0x4d6 ; DrvGPIO_Open + 106
        0x000004b2:    6808        .h      LDR      r0,[r1,#0]
        0x000004b4:    005e        ^.      LSLS     r6,r3,#1
        0x000004b6:    2502        .%      MOVS     r5,#2
        0x000004b8:    40b5        .@      LSLS     r5,r5,r6
        0x000004ba:    4328        (C      ORRS     r0,r0,r5
        0x000004bc:    6008        .`      STR      r0,[r1,#0]
        0x000004be:    e00a        ..      B        0x4d6 ; DrvGPIO_Open + 106
        0x000004c0:    2a03        .*      CMP      r2,#3
        0x000004c2:    d106        ..      BNE      0x4d2 ; DrvGPIO_Open + 102
        0x000004c4:    6808        .h      LDR      r0,[r1,#0]
        0x000004c6:    005e        ^.      LSLS     r6,r3,#1
        0x000004c8:    2503        .%      MOVS     r5,#3
        0x000004ca:    40b5        .@      LSLS     r5,r5,r6
        0x000004cc:    4328        (C      ORRS     r0,r0,r5
        0x000004ce:    6008        .`      STR      r0,[r1,#0]
        0x000004d0:    e001        ..      B        0x4d6 ; DrvGPIO_Open + 106
        0x000004d2:    4802        .H      LDR      r0,[pc,#8] ; [0x4dc] = 0xffff8901
        0x000004d4:    e7d2        ..      B        0x47c ; DrvGPIO_Open + 16
        0x000004d6:    2000        .       MOVS     r0,#0
        0x000004d8:    e7d0        ..      B        0x47c ; DrvGPIO_Open + 16
    $d
        0x000004da:    0000        ..      DCW    0
        0x000004dc:    ffff8901    ....    DCD    4294936833
        0x000004e0:    50004000    .@.P    DCD    1342193664
    $t
    i.DrvGPIO_SetBit
    DrvGPIO_SetBit
        0x000004e4:    b510        ..      PUSH     {r4,lr}
        0x000004e6:    4603        .F      MOV      r3,r0
        0x000004e8:    2900        .)      CMP      r1,#0
        0x000004ea:    db01        ..      BLT      0x4f0 ; DrvGPIO_SetBit + 12
        0x000004ec:    2910        .)      CMP      r1,#0x10
        0x000004ee:    dd01        ..      BLE      0x4f4 ; DrvGPIO_SetBit + 16
        0x000004f0:    4805        .H      LDR      r0,[pc,#20] ; [0x508] = 0xffff8901
        0x000004f2:    bd10        ..      POP      {r4,pc}
        0x000004f4:    0198        ..      LSLS     r0,r3,#6
        0x000004f6:    4c05        .L      LDR      r4,[pc,#20] ; [0x50c] = 0x50004000
        0x000004f8:    1902        ..      ADDS     r2,r0,r4
        0x000004fa:    6890        .h      LDR      r0,[r2,#8]
        0x000004fc:    2401        .$      MOVS     r4,#1
        0x000004fe:    408c        .@      LSLS     r4,r4,r1
        0x00000500:    4320         C      ORRS     r0,r0,r4
        0x00000502:    6090        .`      STR      r0,[r2,#8]
        0x00000504:    2000        .       MOVS     r0,#0
        0x00000506:    e7f4        ..      B        0x4f2 ; DrvGPIO_SetBit + 14
    $d
        0x00000508:    ffff8901    ....    DCD    4294936833
        0x0000050c:    50004000    .@.P    DCD    1342193664
    $t
    i.EINT0_IRQHandler
    EINT0_IRQHandler
        0x00000510:    b510        ..      PUSH     {r4,lr}
        0x00000512:    2001        .       MOVS     r0,#1
        0x00000514:    0380        ..      LSLS     r0,r0,#14
        0x00000516:    4905        .I      LDR      r1,[pc,#20] ; [0x52c] = 0x50004040
        0x00000518:    6208        .b      STR      r0,[r1,#0x20]
        0x0000051a:    4805        .H      LDR      r0,[pc,#20] ; [0x530] = 0x20000604
        0x0000051c:    6800        .h      LDR      r0,[r0,#0]
        0x0000051e:    2800        .(      CMP      r0,#0
        0x00000520:    d002        ..      BEQ      0x528 ; EINT0_IRQHandler + 24
        0x00000522:    4803        .H      LDR      r0,[pc,#12] ; [0x530] = 0x20000604
        0x00000524:    6800        .h      LDR      r0,[r0,#0]
        0x00000526:    4780        .G      BLX      r0
        0x00000528:    bd10        ..      POP      {r4,pc}
    $d
        0x0000052a:    0000        ..      DCW    0
        0x0000052c:    50004040    @@.P    DCD    1342193728
        0x00000530:    20000604    ...     DCD    536872452
    $t
    i.EINT1_IRQHandler
    EINT1_IRQHandler
        0x00000534:    b510        ..      PUSH     {r4,lr}
        0x00000536:    2001        .       MOVS     r0,#1
        0x00000538:    03c0        ..      LSLS     r0,r0,#15
        0x0000053a:    4905        .I      LDR      r1,[pc,#20] ; [0x550] = 0x50004040
        0x0000053c:    6208        .b      STR      r0,[r1,#0x20]
        0x0000053e:    4805        .H      LDR      r0,[pc,#20] ; [0x554] = 0x20000608
        0x00000540:    6800        .h      LDR      r0,[r0,#0]
        0x00000542:    2800        .(      CMP      r0,#0
        0x00000544:    d002        ..      BEQ      0x54c ; EINT1_IRQHandler + 24
        0x00000546:    4803        .H      LDR      r0,[pc,#12] ; [0x554] = 0x20000608
        0x00000548:    6800        .h      LDR      r0,[r0,#0]
        0x0000054a:    4780        .G      BLX      r0
        0x0000054c:    bd10        ..      POP      {r4,pc}
    $d
        0x0000054e:    0000        ..      DCW    0
        0x00000550:    50004040    @@.P    DCD    1342193728
        0x00000554:    20000608    ...     DCD    536872456
    $t
    i.GPAB_IRQHandler
    GPAB_IRQHandler
        0x00000558:    b570        p.      PUSH     {r4-r6,lr}
        0x0000055a:    480c        .H      LDR      r0,[pc,#48] ; [0x58c] = 0x50004000
        0x0000055c:    6a05        .j      LDR      r5,[r0,#0x20]
        0x0000055e:    480b        .H      LDR      r0,[pc,#44] ; [0x58c] = 0x50004000
        0x00000560:    3040        @0      ADDS     r0,r0,#0x40
        0x00000562:    6a04        .j      LDR      r4,[r0,#0x20]
        0x00000564:    2103        .!      MOVS     r1,#3
        0x00000566:    0389        ..      LSLS     r1,r1,#14
        0x00000568:    4620         F      MOV      r0,r4
        0x0000056a:    4388        .C      BICS     r0,r0,r1
        0x0000056c:    4604        .F      MOV      r4,r0
        0x0000056e:    4807        .H      LDR      r0,[pc,#28] ; [0x58c] = 0x50004000
        0x00000570:    6205        .b      STR      r5,[r0,#0x20]
        0x00000572:    4806        .H      LDR      r0,[pc,#24] ; [0x58c] = 0x50004000
        0x00000574:    3040        @0      ADDS     r0,r0,#0x40
        0x00000576:    6204        .b      STR      r4,[r0,#0x20]
        0x00000578:    4805        .H      LDR      r0,[pc,#20] ; [0x590] = 0x200005fc
        0x0000057a:    6800        .h      LDR      r0,[r0,#0]
        0x0000057c:    2800        .(      CMP      r0,#0
        0x0000057e:    d004        ..      BEQ      0x58a ; GPAB_IRQHandler + 50
        0x00000580:    4621        !F      MOV      r1,r4
        0x00000582:    4628        (F      MOV      r0,r5
        0x00000584:    4a02        .J      LDR      r2,[pc,#8] ; [0x590] = 0x200005fc
        0x00000586:    6812        .h      LDR      r2,[r2,#0]
        0x00000588:    4790        .G      BLX      r2
        0x0000058a:    bd70        p.      POP      {r4-r6,pc}
    $d
        0x0000058c:    50004000    .@.P    DCD    1342193664
        0x00000590:    200005fc    ...     DCD    536872444
    $t
    i.GPCDE_IRQHandler
    GPCDE_IRQHandler
        0x00000594:    b570        p.      PUSH     {r4-r6,lr}
        0x00000596:    480d        .H      LDR      r0,[pc,#52] ; [0x5cc] = 0x50004080
        0x00000598:    6a04        .j      LDR      r4,[r0,#0x20]
        0x0000059a:    480c        .H      LDR      r0,[pc,#48] ; [0x5cc] = 0x50004080
        0x0000059c:    3040        @0      ADDS     r0,r0,#0x40
        0x0000059e:    6a05        .j      LDR      r5,[r0,#0x20]
        0x000005a0:    480a        .H      LDR      r0,[pc,#40] ; [0x5cc] = 0x50004080
        0x000005a2:    3080        .0      ADDS     r0,r0,#0x80
        0x000005a4:    6a06        .j      LDR      r6,[r0,#0x20]
        0x000005a6:    4809        .H      LDR      r0,[pc,#36] ; [0x5cc] = 0x50004080
        0x000005a8:    6204        .b      STR      r4,[r0,#0x20]
        0x000005aa:    4808        .H      LDR      r0,[pc,#32] ; [0x5cc] = 0x50004080
        0x000005ac:    3040        @0      ADDS     r0,r0,#0x40
        0x000005ae:    6205        .b      STR      r5,[r0,#0x20]
        0x000005b0:    4806        .H      LDR      r0,[pc,#24] ; [0x5cc] = 0x50004080
        0x000005b2:    3080        .0      ADDS     r0,r0,#0x80
        0x000005b4:    6206        .b      STR      r6,[r0,#0x20]
        0x000005b6:    4806        .H      LDR      r0,[pc,#24] ; [0x5d0] = 0x20000600
        0x000005b8:    6800        .h      LDR      r0,[r0,#0]
        0x000005ba:    2800        .(      CMP      r0,#0
        0x000005bc:    d005        ..      BEQ      0x5ca ; GPCDE_IRQHandler + 54
        0x000005be:    4632        2F      MOV      r2,r6
        0x000005c0:    4629        )F      MOV      r1,r5
        0x000005c2:    4620         F      MOV      r0,r4
        0x000005c4:    4b02        .K      LDR      r3,[pc,#8] ; [0x5d0] = 0x20000600
        0x000005c6:    681b        .h      LDR      r3,[r3,#0]
        0x000005c8:    4798        .G      BLX      r3
        0x000005ca:    bd70        p.      POP      {r4-r6,pc}
    $d
        0x000005cc:    50004080    .@.P    DCD    1342193792
        0x000005d0:    20000600    ...     DCD    536872448
    $t
    i.GetRand
    GetRand
        0x000005d4:    b510        ..      PUSH     {r4,lr}
        0x000005d6:    f7fffdc9    ....    BL       rand ; 0x16c
        0x000005da:    4604        .F      MOV      r4,r0
        0x000005dc:    2106        .!      MOVS     r1,#6
        0x000005de:    f7fffe3d    ..=.    BL       __aeabi_idiv ; 0x25c
        0x000005e2:    1c49        I.      ADDS     r1,r1,#1
        0x000005e4:    b248        H.      SXTB     r0,r1
        0x000005e6:    bd10        ..      POP      {r4,pc}
    i.InitData
    InitData
        0x000005e8:    b510        ..      PUSH     {r4,lr}
        0x000005ea:    2400        .$      MOVS     r4,#0
        0x000005ec:    e004        ..      B        0x5f8 ; InitData + 16
        0x000005ee:    2000        .       MOVS     r0,#0
        0x000005f0:    4909        .I      LDR      r1,[pc,#36] ; [0x618] = 0x200001e0
        0x000005f2:    5508        .U      STRB     r0,[r1,r4]
        0x000005f4:    1c60        `.      ADDS     r0,r4,#1
        0x000005f6:    b2c4        ..      UXTB     r4,r0
        0x000005f8:    2001        .       MOVS     r0,#1
        0x000005fa:    0280        ..      LSLS     r0,r0,#10
        0x000005fc:    4284        .B      CMP      r4,r0
        0x000005fe:    dbf6        ..      BLT      0x5ee ; InitData + 6
        0x00000600:    2401        .$      MOVS     r4,#1
        0x00000602:    e005        ..      B        0x610 ; InitData + 40
        0x00000604:    4621        !F      MOV      r1,r4
        0x00000606:    2000        .       MOVS     r0,#0
        0x00000608:    f000f92e    ....    BL       LoadImg ; 0x868
        0x0000060c:    1c60        `.      ADDS     r0,r4,#1
        0x0000060e:    b2c4        ..      UXTB     r4,r0
        0x00000610:    2c06        .,      CMP      r4,#6
        0x00000612:    ddf7        ..      BLE      0x604 ; InitData + 28
        0x00000614:    bd10        ..      POP      {r4,pc}
    $d
        0x00000616:    0000        ..      DCW    0
        0x00000618:    200001e0    ...     DCD    536871392
    $t
    i.Initial_panel
    Initial_panel
        0x0000061c:    4883        .H      LDR      r0,[pc,#524] ; [0x82c] = 0x50000200
        0x0000061e:    6880        .h      LDR      r0,[r0,#8]
        0x00000620:    2101        .!      MOVS     r1,#1
        0x00000622:    03c9        ..      LSLS     r1,r1,#15
        0x00000624:    4388        .C      BICS     r0,r0,r1
        0x00000626:    1840        @.      ADDS     r0,r0,r1
        0x00000628:    4980        .I      LDR      r1,[pc,#512] ; [0x82c] = 0x50000200
        0x0000062a:    6088        .`      STR      r0,[r1,#8]
        0x0000062c:    2005        .       MOVS     r0,#5
        0x0000062e:    0700        ..      LSLS     r0,r0,#28
        0x00000630:    68c0        .h      LDR      r0,[r0,#0xc]
        0x00000632:    0189        ..      LSLS     r1,r1,#6
        0x00000634:    4388        .C      BICS     r0,r0,r1
        0x00000636:    1840        @.      ADDS     r0,r0,r1
        0x00000638:    2105        .!      MOVS     r1,#5
        0x0000063a:    0709        ..      LSLS     r1,r1,#28
        0x0000063c:    60c8        .`      STR      r0,[r1,#0xc]
        0x0000063e:    4608        .F      MOV      r0,r1
        0x00000640:    68c0        .h      LDR      r0,[r0,#0xc]
        0x00000642:    2101        .!      MOVS     r1,#1
        0x00000644:    03c9        ..      LSLS     r1,r1,#15
        0x00000646:    4388        .C      BICS     r0,r0,r1
        0x00000648:    2105        .!      MOVS     r1,#5
        0x0000064a:    0709        ..      LSLS     r1,r1,#28
        0x0000064c:    60c8        .`      STR      r0,[r1,#0xc]
        0x0000064e:    4608        .F      MOV      r0,r1
        0x00000650:    6bc0        .k      LDR      r0,[r0,#0x3c]
        0x00000652:    21ff        .!      MOVS     r1,#0xff
        0x00000654:    3101        .1      ADDS     r1,#1
        0x00000656:    4388        .C      BICS     r0,r0,r1
        0x00000658:    1840        @.      ADDS     r0,r0,r1
        0x0000065a:    2105        .!      MOVS     r1,#5
        0x0000065c:    0709        ..      LSLS     r1,r1,#28
        0x0000065e:    63c8        .c      STR      r0,[r1,#0x3c]
        0x00000660:    4608        .F      MOV      r0,r1
        0x00000662:    6bc0        .k      LDR      r0,[r0,#0x3c]
        0x00000664:    2101        .!      MOVS     r1,#1
        0x00000666:    0249        I.      LSLS     r1,r1,#9
        0x00000668:    4388        .C      BICS     r0,r0,r1
        0x0000066a:    1840        @.      ADDS     r0,r0,r1
        0x0000066c:    2105        .!      MOVS     r1,#5
        0x0000066e:    0709        ..      LSLS     r1,r1,#28
        0x00000670:    63c8        .c      STR      r0,[r1,#0x3c]
        0x00000672:    4608        .F      MOV      r0,r1
        0x00000674:    6bc0        .k      LDR      r0,[r0,#0x3c]
        0x00000676:    2101        .!      MOVS     r1,#1
        0x00000678:    02c9        ..      LSLS     r1,r1,#11
        0x0000067a:    4388        .C      BICS     r0,r0,r1
        0x0000067c:    1840        @.      ADDS     r0,r0,r1
        0x0000067e:    2105        .!      MOVS     r1,#5
        0x00000680:    0709        ..      LSLS     r1,r1,#28
        0x00000682:    63c8        .c      STR      r0,[r1,#0x3c]
        0x00000684:    486a        jH      LDR      r0,[pc,#424] ; [0x830] = 0x200005ec
        0x00000686:    68c0        .h      LDR      r0,[r0,#0xc]
        0x00000688:    6800        .h      LDR      r0,[r0,#0]
        0x0000068a:    2101        .!      MOVS     r1,#1
        0x0000068c:    02c9        ..      LSLS     r1,r1,#11
        0x0000068e:    4388        .C      BICS     r0,r0,r1
        0x00000690:    1840        @.      ADDS     r0,r0,r1
        0x00000692:    4967        gI      LDR      r1,[pc,#412] ; [0x830] = 0x200005ec
        0x00000694:    68c9        .h      LDR      r1,[r1,#0xc]
        0x00000696:    6008        .`      STR      r0,[r1,#0]
        0x00000698:    4865        eH      LDR      r0,[pc,#404] ; [0x830] = 0x200005ec
        0x0000069a:    68c0        .h      LDR      r0,[r0,#0xc]
        0x0000069c:    6800        .h      LDR      r0,[r0,#0]
        0x0000069e:    21f8        .!      MOVS     r1,#0xf8
        0x000006a0:    4388        .C      BICS     r0,r0,r1
        0x000006a2:    3048        H0      ADDS     r0,r0,#0x48
        0x000006a4:    4962        bI      LDR      r1,[pc,#392] ; [0x830] = 0x200005ec
        0x000006a6:    68c9        .h      LDR      r1,[r1,#0xc]
        0x000006a8:    6008        .`      STR      r0,[r1,#0]
        0x000006aa:    4861        aH      LDR      r0,[pc,#388] ; [0x830] = 0x200005ec
        0x000006ac:    68c0        .h      LDR      r0,[r0,#0xc]
        0x000006ae:    6800        .h      LDR      r0,[r0,#0]
        0x000006b0:    2104        .!      MOVS     r1,#4
        0x000006b2:    4388        .C      BICS     r0,r0,r1
        0x000006b4:    1d00        ..      ADDS     r0,r0,#4
        0x000006b6:    495e        ^I      LDR      r1,[pc,#376] ; [0x830] = 0x200005ec
        0x000006b8:    68c9        .h      LDR      r1,[r1,#0xc]
        0x000006ba:    6008        .`      STR      r0,[r1,#0]
        0x000006bc:    485c        \H      LDR      r0,[pc,#368] ; [0x830] = 0x200005ec
        0x000006be:    68c0        .h      LDR      r0,[r0,#0xc]
        0x000006c0:    6840        @h      LDR      r0,[r0,#4]
        0x000006c2:    0c00        ..      LSRS     r0,r0,#16
        0x000006c4:    0400        ..      LSLS     r0,r0,#16
        0x000006c6:    1cc0        ..      ADDS     r0,r0,#3
        0x000006c8:    4959        YI      LDR      r1,[pc,#356] ; [0x830] = 0x200005ec
        0x000006ca:    68c9        .h      LDR      r1,[r1,#0xc]
        0x000006cc:    6048        H`      STR      r0,[r1,#4]
        0x000006ce:    4858        XH      LDR      r0,[pc,#352] ; [0x830] = 0x200005ec
        0x000006d0:    68c0        .h      LDR      r0,[r0,#0xc]
        0x000006d2:    6880        .h      LDR      r0,[r0,#8]
        0x000006d4:    0880        ..      LSRS     r0,r0,#2
        0x000006d6:    0080        ..      LSLS     r0,r0,#2
        0x000006d8:    1c40        @.      ADDS     r0,r0,#1
        0x000006da:    4955        UI      LDR      r1,[pc,#340] ; [0x830] = 0x200005ec
        0x000006dc:    68c9        .h      LDR      r1,[r1,#0xc]
        0x000006de:    6088        .`      STR      r0,[r1,#8]
        0x000006e0:    20eb        .       MOVS     r0,#0xeb
        0x000006e2:    4953        SI      LDR      r1,[pc,#332] ; [0x830] = 0x200005ec
        0x000006e4:    68c9        .h      LDR      r1,[r1,#0xc]
        0x000006e6:    6208        .b      STR      r0,[r1,#0x20]
        0x000006e8:    4851        QH      LDR      r0,[pc,#324] ; [0x830] = 0x200005ec
        0x000006ea:    68c0        .h      LDR      r0,[r0,#0xc]
        0x000006ec:    6800        .h      LDR      r0,[r0,#0]
        0x000006ee:    0840        @.      LSRS     r0,r0,#1
        0x000006f0:    0040        @.      LSLS     r0,r0,#1
        0x000006f2:    1c40        @.      ADDS     r0,r0,#1
        0x000006f4:    494e        NI      LDR      r1,[pc,#312] ; [0x830] = 0x200005ec
        0x000006f6:    68c9        .h      LDR      r1,[r1,#0xc]
        0x000006f8:    6008        .`      STR      r0,[r1,#0]
        0x000006fa:    bf00        ..      NOP      
        0x000006fc:    484c        LH      LDR      r0,[pc,#304] ; [0x830] = 0x200005ec
        0x000006fe:    68c0        .h      LDR      r0,[r0,#0xc]
        0x00000700:    6800        .h      LDR      r0,[r0,#0]
        0x00000702:    07c0        ..      LSLS     r0,r0,#31
        0x00000704:    0fc0        ..      LSRS     r0,r0,#31
        0x00000706:    2801        .(      CMP      r0,#1
        0x00000708:    d0f8        ..      BEQ      0x6fc ; Initial_panel + 224
        0x0000070a:    4849        IH      LDR      r0,[pc,#292] ; [0x830] = 0x200005ec
        0x0000070c:    68c0        .h      LDR      r0,[r0,#0xc]
        0x0000070e:    6880        .h      LDR      r0,[r0,#8]
        0x00000710:    0880        ..      LSRS     r0,r0,#2
        0x00000712:    0080        ..      LSLS     r0,r0,#2
        0x00000714:    4946        FI      LDR      r1,[pc,#280] ; [0x830] = 0x200005ec
        0x00000716:    68c9        .h      LDR      r1,[r1,#0xc]
        0x00000718:    6088        .`      STR      r0,[r1,#8]
        0x0000071a:    4845        EH      LDR      r0,[pc,#276] ; [0x830] = 0x200005ec
        0x0000071c:    68c0        .h      LDR      r0,[r0,#0xc]
        0x0000071e:    6880        .h      LDR      r0,[r0,#8]
        0x00000720:    0880        ..      LSRS     r0,r0,#2
        0x00000722:    0080        ..      LSLS     r0,r0,#2
        0x00000724:    1c40        @.      ADDS     r0,r0,#1
        0x00000726:    4942        BI      LDR      r1,[pc,#264] ; [0x830] = 0x200005ec
        0x00000728:    68c9        .h      LDR      r1,[r1,#0xc]
        0x0000072a:    6088        .`      STR      r0,[r1,#8]
        0x0000072c:    2081        .       MOVS     r0,#0x81
        0x0000072e:    4940        @I      LDR      r1,[pc,#256] ; [0x830] = 0x200005ec
        0x00000730:    68c9        .h      LDR      r1,[r1,#0xc]
        0x00000732:    6208        .b      STR      r0,[r1,#0x20]
        0x00000734:    483e        >H      LDR      r0,[pc,#248] ; [0x830] = 0x200005ec
        0x00000736:    68c0        .h      LDR      r0,[r0,#0xc]
        0x00000738:    6800        .h      LDR      r0,[r0,#0]
        0x0000073a:    0840        @.      LSRS     r0,r0,#1
        0x0000073c:    0040        @.      LSLS     r0,r0,#1
        0x0000073e:    1c40        @.      ADDS     r0,r0,#1
        0x00000740:    493b        ;I      LDR      r1,[pc,#236] ; [0x830] = 0x200005ec
        0x00000742:    68c9        .h      LDR      r1,[r1,#0xc]
        0x00000744:    6008        .`      STR      r0,[r1,#0]
        0x00000746:    bf00        ..      NOP      
        0x00000748:    4839        9H      LDR      r0,[pc,#228] ; [0x830] = 0x200005ec
        0x0000074a:    68c0        .h      LDR      r0,[r0,#0xc]
        0x0000074c:    6800        .h      LDR      r0,[r0,#0]
        0x0000074e:    07c0        ..      LSLS     r0,r0,#31
        0x00000750:    0fc0        ..      LSRS     r0,r0,#31
        0x00000752:    2801        .(      CMP      r0,#1
        0x00000754:    d0f8        ..      BEQ      0x748 ; Initial_panel + 300
        0x00000756:    20a0        .       MOVS     r0,#0xa0
        0x00000758:    4935        5I      LDR      r1,[pc,#212] ; [0x830] = 0x200005ec
        0x0000075a:    68c9        .h      LDR      r1,[r1,#0xc]
        0x0000075c:    6208        .b      STR      r0,[r1,#0x20]
        0x0000075e:    4834        4H      LDR      r0,[pc,#208] ; [0x830] = 0x200005ec
        0x00000760:    68c0        .h      LDR      r0,[r0,#0xc]
        0x00000762:    6800        .h      LDR      r0,[r0,#0]
        0x00000764:    0840        @.      LSRS     r0,r0,#1
        0x00000766:    0040        @.      LSLS     r0,r0,#1
        0x00000768:    1c40        @.      ADDS     r0,r0,#1
        0x0000076a:    4931        1I      LDR      r1,[pc,#196] ; [0x830] = 0x200005ec
        0x0000076c:    68c9        .h      LDR      r1,[r1,#0xc]
        0x0000076e:    6008        .`      STR      r0,[r1,#0]
        0x00000770:    bf00        ..      NOP      
        0x00000772:    482f        /H      LDR      r0,[pc,#188] ; [0x830] = 0x200005ec
        0x00000774:    68c0        .h      LDR      r0,[r0,#0xc]
        0x00000776:    6800        .h      LDR      r0,[r0,#0]
        0x00000778:    07c0        ..      LSLS     r0,r0,#31
        0x0000077a:    0fc0        ..      LSRS     r0,r0,#31
        0x0000077c:    2801        .(      CMP      r0,#1
        0x0000077e:    d0f8        ..      BEQ      0x772 ; Initial_panel + 342
        0x00000780:    482b        +H      LDR      r0,[pc,#172] ; [0x830] = 0x200005ec
        0x00000782:    68c0        .h      LDR      r0,[r0,#0xc]
        0x00000784:    6880        .h      LDR      r0,[r0,#8]
        0x00000786:    0880        ..      LSRS     r0,r0,#2
        0x00000788:    0080        ..      LSLS     r0,r0,#2
        0x0000078a:    4929        )I      LDR      r1,[pc,#164] ; [0x830] = 0x200005ec
        0x0000078c:    68c9        .h      LDR      r1,[r1,#0xc]
        0x0000078e:    6088        .`      STR      r0,[r1,#8]
        0x00000790:    4827        'H      LDR      r0,[pc,#156] ; [0x830] = 0x200005ec
        0x00000792:    68c0        .h      LDR      r0,[r0,#0xc]
        0x00000794:    6880        .h      LDR      r0,[r0,#8]
        0x00000796:    0880        ..      LSRS     r0,r0,#2
        0x00000798:    0080        ..      LSLS     r0,r0,#2
        0x0000079a:    1c40        @.      ADDS     r0,r0,#1
        0x0000079c:    4924        $I      LDR      r1,[pc,#144] ; [0x830] = 0x200005ec
        0x0000079e:    68c9        .h      LDR      r1,[r1,#0xc]
        0x000007a0:    6088        .`      STR      r0,[r1,#8]
        0x000007a2:    20c0        .       MOVS     r0,#0xc0
        0x000007a4:    4922        "I      LDR      r1,[pc,#136] ; [0x830] = 0x200005ec
        0x000007a6:    68c9        .h      LDR      r1,[r1,#0xc]
        0x000007a8:    6208        .b      STR      r0,[r1,#0x20]
        0x000007aa:    4821        !H      LDR      r0,[pc,#132] ; [0x830] = 0x200005ec
        0x000007ac:    68c0        .h      LDR      r0,[r0,#0xc]
        0x000007ae:    6800        .h      LDR      r0,[r0,#0]
        0x000007b0:    0840        @.      LSRS     r0,r0,#1
        0x000007b2:    0040        @.      LSLS     r0,r0,#1
        0x000007b4:    1c40        @.      ADDS     r0,r0,#1
        0x000007b6:    491e        .I      LDR      r1,[pc,#120] ; [0x830] = 0x200005ec
        0x000007b8:    68c9        .h      LDR      r1,[r1,#0xc]
        0x000007ba:    6008        .`      STR      r0,[r1,#0]
        0x000007bc:    bf00        ..      NOP      
        0x000007be:    481c        .H      LDR      r0,[pc,#112] ; [0x830] = 0x200005ec
        0x000007c0:    68c0        .h      LDR      r0,[r0,#0xc]
        0x000007c2:    6800        .h      LDR      r0,[r0,#0]
        0x000007c4:    07c0        ..      LSLS     r0,r0,#31
        0x000007c6:    0fc0        ..      LSRS     r0,r0,#31
        0x000007c8:    2801        .(      CMP      r0,#1
        0x000007ca:    d0f8        ..      BEQ      0x7be ; Initial_panel + 418
        0x000007cc:    4818        .H      LDR      r0,[pc,#96] ; [0x830] = 0x200005ec
        0x000007ce:    68c0        .h      LDR      r0,[r0,#0xc]
        0x000007d0:    6880        .h      LDR      r0,[r0,#8]
        0x000007d2:    0880        ..      LSRS     r0,r0,#2
        0x000007d4:    0080        ..      LSLS     r0,r0,#2
        0x000007d6:    4916        .I      LDR      r1,[pc,#88] ; [0x830] = 0x200005ec
        0x000007d8:    68c9        .h      LDR      r1,[r1,#0xc]
        0x000007da:    6088        .`      STR      r0,[r1,#8]
        0x000007dc:    4814        .H      LDR      r0,[pc,#80] ; [0x830] = 0x200005ec
        0x000007de:    68c0        .h      LDR      r0,[r0,#0xc]
        0x000007e0:    6880        .h      LDR      r0,[r0,#8]
        0x000007e2:    0880        ..      LSRS     r0,r0,#2
        0x000007e4:    0080        ..      LSLS     r0,r0,#2
        0x000007e6:    1c40        @.      ADDS     r0,r0,#1
        0x000007e8:    4911        .I      LDR      r1,[pc,#68] ; [0x830] = 0x200005ec
        0x000007ea:    68c9        .h      LDR      r1,[r1,#0xc]
        0x000007ec:    6088        .`      STR      r0,[r1,#8]
        0x000007ee:    20af        .       MOVS     r0,#0xaf
        0x000007f0:    490f        .I      LDR      r1,[pc,#60] ; [0x830] = 0x200005ec
        0x000007f2:    68c9        .h      LDR      r1,[r1,#0xc]
        0x000007f4:    6208        .b      STR      r0,[r1,#0x20]
        0x000007f6:    480e        .H      LDR      r0,[pc,#56] ; [0x830] = 0x200005ec
        0x000007f8:    68c0        .h      LDR      r0,[r0,#0xc]
        0x000007fa:    6800        .h      LDR      r0,[r0,#0]
        0x000007fc:    0840        @.      LSRS     r0,r0,#1
        0x000007fe:    0040        @.      LSLS     r0,r0,#1
        0x00000800:    1c40        @.      ADDS     r0,r0,#1
        0x00000802:    490b        .I      LDR      r1,[pc,#44] ; [0x830] = 0x200005ec
        0x00000804:    68c9        .h      LDR      r1,[r1,#0xc]
        0x00000806:    6008        .`      STR      r0,[r1,#0]
        0x00000808:    bf00        ..      NOP      
        0x0000080a:    4809        .H      LDR      r0,[pc,#36] ; [0x830] = 0x200005ec
        0x0000080c:    68c0        .h      LDR      r0,[r0,#0xc]
        0x0000080e:    6800        .h      LDR      r0,[r0,#0]
        0x00000810:    07c0        ..      LSLS     r0,r0,#31
        0x00000812:    0fc0        ..      LSRS     r0,r0,#31
        0x00000814:    2801        .(      CMP      r0,#1
        0x00000816:    d0f8        ..      BEQ      0x80a ; Initial_panel + 494
        0x00000818:    4805        .H      LDR      r0,[pc,#20] ; [0x830] = 0x200005ec
        0x0000081a:    68c0        .h      LDR      r0,[r0,#0xc]
        0x0000081c:    6880        .h      LDR      r0,[r0,#8]
        0x0000081e:    0880        ..      LSRS     r0,r0,#2
        0x00000820:    0080        ..      LSLS     r0,r0,#2
        0x00000822:    4903        .I      LDR      r1,[pc,#12] ; [0x830] = 0x200005ec
        0x00000824:    68c9        .h      LDR      r1,[r1,#0xc]
        0x00000826:    6088        .`      STR      r0,[r1,#8]
        0x00000828:    4770        pG      BX       lr
    $d
        0x0000082a:    0000        ..      DCW    0
        0x0000082c:    50000200    ...P    DCD    1342177792
        0x00000830:    200005ec    ...     DCD    536872428
    $t
    i.LoadBuf
    LoadBuf
        0x00000834:    b510        ..      PUSH     {r4,lr}
        0x00000836:    2000        .       MOVS     r0,#0
        0x00000838:    e00f        ..      B        0x85a ; LoadBuf + 38
        0x0000083a:    2100        .!      MOVS     r1,#0
        0x0000083c:    e009        ..      B        0x852 ; LoadBuf + 30
        0x0000083e:    01ca        ..      LSLS     r2,r1,#7
        0x00000840:    1812        ..      ADDS     r2,r2,r0
        0x00000842:    4b07        .K      LDR      r3,[pc,#28] ; [0x860] = 0x200001e0
        0x00000844:    5c9a        .\      LDRB     r2,[r3,r2]
        0x00000846:    00c3        ..      LSLS     r3,r0,#3
        0x00000848:    185b        [.      ADDS     r3,r3,r1
        0x0000084a:    4c06        .L      LDR      r4,[pc,#24] ; [0x864] = 0x2000060c
        0x0000084c:    54e2        .T      STRB     r2,[r4,r3]
        0x0000084e:    1c4a        J.      ADDS     r2,r1,#1
        0x00000850:    b2d1        ..      UXTB     r1,r2
        0x00000852:    2908        .)      CMP      r1,#8
        0x00000854:    dbf3        ..      BLT      0x83e ; LoadBuf + 10
        0x00000856:    1c42        B.      ADDS     r2,r0,#1
        0x00000858:    b2d0        ..      UXTB     r0,r2
        0x0000085a:    2880        .(      CMP      r0,#0x80
        0x0000085c:    dbed        ..      BLT      0x83a ; LoadBuf + 6
        0x0000085e:    bd10        ..      POP      {r4,pc}
    $d
        0x00000860:    200001e0    ...     DCD    536871392
        0x00000864:    2000060c    ...     DCD    536872460
    $t
    i.LoadImg
    LoadImg
        0x00000868:    b5f3        ..      PUSH     {r0,r1,r4-r7,lr}
        0x0000086a:    b081        ..      SUB      sp,sp,#4
        0x0000086c:    460c        .F      MOV      r4,r1
        0x0000086e:    9801        ..      LDR      r0,[sp,#4]
        0x00000870:    2800        .(      CMP      r0,#0
        0x00000872:    d004        ..      BEQ      0x87e ; LoadImg + 22
        0x00000874:    2801        .(      CMP      r0,#1
        0x00000876:    d02d        -.      BEQ      0x8d4 ; LoadImg + 108
        0x00000878:    2802        .(      CMP      r0,#2
        0x0000087a:    d17e        ~.      BNE      0x97a ; LoadImg + 274
        0x0000087c:    e055        U.      B        0x92a ; LoadImg + 194
        0x0000087e:    2600        .&      MOVS     r6,#0
        0x00000880:    e025        %.      B        0x8ce ; LoadImg + 102
        0x00000882:    2700        .'      MOVS     r7,#0
        0x00000884:    e01f        ..      B        0x8c6 ; LoadImg + 94
        0x00000886:    1e60        `.      SUBS     r0,r4,#1
        0x00000888:    2103        .!      MOVS     r1,#3
        0x0000088a:    f7fffce7    ....    BL       __aeabi_idiv ; 0x25c
        0x0000088e:    2028        (       MOVS     r0,#0x28
        0x00000890:    4341        AC      MULS     r1,r0,r1
        0x00000892:    17e0        ..      ASRS     r0,r4,#31
        0x00000894:    0f80        ..      LSRS     r0,r0,#30
        0x00000896:    1900        ..      ADDS     r0,r0,r4
        0x00000898:    1080        ..      ASRS     r0,r0,#2
        0x0000089a:    0240        @.      LSLS     r0,r0,#9
        0x0000089c:    01f2        ..      LSLS     r2,r6,#7
        0x0000089e:    1880        ..      ADDS     r0,r0,r2
        0x000008a0:    180d        ..      ADDS     r5,r1,r0
        0x000008a2:    1e60        `.      SUBS     r0,r4,#1
        0x000008a4:    2103        .!      MOVS     r1,#3
        0x000008a6:    9400        ..      STR      r4,[sp,#0]
        0x000008a8:    f7fffcd8    ....    BL       __aeabi_idiv ; 0x25c
        0x000008ac:    1c49        I.      ADDS     r1,r1,#1
        0x000008ae:    0048        H.      LSLS     r0,r1,#1
        0x000008b0:    1828        (.      ADDS     r0,r5,r0
        0x000008b2:    19c1        ..      ADDS     r1,r0,r7
        0x000008b4:    4a35        5J      LDR      r2,[pc,#212] ; [0x98c] = 0x200001e0
        0x000008b6:    2028        (       MOVS     r0,#0x28
        0x000008b8:    4370        pC      MULS     r0,r6,r0
        0x000008ba:    19c0        ..      ADDS     r0,r0,r7
        0x000008bc:    4b34        4K      LDR      r3,[pc,#208] ; [0x990] = 0x20000140
        0x000008be:    5c18        .\      LDRB     r0,[r3,r0]
        0x000008c0:    5450        PT      STRB     r0,[r2,r1]
        0x000008c2:    1c78        x.      ADDS     r0,r7,#1
        0x000008c4:    b2c7        ..      UXTB     r7,r0
        0x000008c6:    2f28        (/      CMP      r7,#0x28
        0x000008c8:    dbdd        ..      BLT      0x886 ; LoadImg + 30
        0x000008ca:    1c70        p.      ADDS     r0,r6,#1
        0x000008cc:    b2c6        ..      UXTB     r6,r0
        0x000008ce:    2e04        ..      CMP      r6,#4
        0x000008d0:    dbd7        ..      BLT      0x882 ; LoadImg + 26
        0x000008d2:    e058        X.      B        0x986 ; LoadImg + 286
        0x000008d4:    2600        .&      MOVS     r6,#0
        0x000008d6:    e025        %.      B        0x924 ; LoadImg + 188
        0x000008d8:    2700        .'      MOVS     r7,#0
        0x000008da:    e01f        ..      B        0x91c ; LoadImg + 180
        0x000008dc:    1e60        `.      SUBS     r0,r4,#1
        0x000008de:    2103        .!      MOVS     r1,#3
        0x000008e0:    f7fffcbc    ....    BL       __aeabi_idiv ; 0x25c
        0x000008e4:    2028        (       MOVS     r0,#0x28
        0x000008e6:    4341        AC      MULS     r1,r0,r1
        0x000008e8:    17e0        ..      ASRS     r0,r4,#31
        0x000008ea:    0f80        ..      LSRS     r0,r0,#30
        0x000008ec:    1900        ..      ADDS     r0,r0,r4
        0x000008ee:    1080        ..      ASRS     r0,r0,#2
        0x000008f0:    0240        @.      LSLS     r0,r0,#9
        0x000008f2:    01f2        ..      LSLS     r2,r6,#7
        0x000008f4:    1880        ..      ADDS     r0,r0,r2
        0x000008f6:    180d        ..      ADDS     r5,r1,r0
        0x000008f8:    1e60        `.      SUBS     r0,r4,#1
        0x000008fa:    2103        .!      MOVS     r1,#3
        0x000008fc:    9400        ..      STR      r4,[sp,#0]
        0x000008fe:    f7fffcad    ....    BL       __aeabi_idiv ; 0x25c
        0x00000902:    1c49        I.      ADDS     r1,r1,#1
        0x00000904:    0048        H.      LSLS     r0,r1,#1
        0x00000906:    1828        (.      ADDS     r0,r5,r0
        0x00000908:    19c1        ..      ADDS     r1,r0,r7
        0x0000090a:    4a20         J      LDR      r2,[pc,#128] ; [0x98c] = 0x200001e0
        0x0000090c:    2028        (       MOVS     r0,#0x28
        0x0000090e:    4370        pC      MULS     r0,r6,r0
        0x00000910:    19c0        ..      ADDS     r0,r0,r7
        0x00000912:    4b20         K      LDR      r3,[pc,#128] ; [0x994] = 0x20000000
        0x00000914:    5c18        .\      LDRB     r0,[r3,r0]
        0x00000916:    5450        PT      STRB     r0,[r2,r1]
        0x00000918:    1c78        x.      ADDS     r0,r7,#1
        0x0000091a:    b2c7        ..      UXTB     r7,r0
        0x0000091c:    2f28        (/      CMP      r7,#0x28
        0x0000091e:    dbdd        ..      BLT      0x8dc ; LoadImg + 116
        0x00000920:    1c70        p.      ADDS     r0,r6,#1
        0x00000922:    b2c6        ..      UXTB     r6,r0
        0x00000924:    2e04        ..      CMP      r6,#4
        0x00000926:    dbd7        ..      BLT      0x8d8 ; LoadImg + 112
        0x00000928:    e02d        -.      B        0x986 ; LoadImg + 286
        0x0000092a:    2600        .&      MOVS     r6,#0
        0x0000092c:    e027        '.      B        0x97e ; LoadImg + 278
        0x0000092e:    2700        .'      MOVS     r7,#0
        0x00000930:    e01f        ..      B        0x972 ; LoadImg + 266
        0x00000932:    1e60        `.      SUBS     r0,r4,#1
        0x00000934:    2103        .!      MOVS     r1,#3
        0x00000936:    f7fffc91    ....    BL       __aeabi_idiv ; 0x25c
        0x0000093a:    2028        (       MOVS     r0,#0x28
        0x0000093c:    4341        AC      MULS     r1,r0,r1
        0x0000093e:    17e0        ..      ASRS     r0,r4,#31
        0x00000940:    0f80        ..      LSRS     r0,r0,#30
        0x00000942:    1900        ..      ADDS     r0,r0,r4
        0x00000944:    1080        ..      ASRS     r0,r0,#2
        0x00000946:    0240        @.      LSLS     r0,r0,#9
        0x00000948:    01f2        ..      LSLS     r2,r6,#7
        0x0000094a:    1880        ..      ADDS     r0,r0,r2
        0x0000094c:    180d        ..      ADDS     r5,r1,r0
        0x0000094e:    1e60        `.      SUBS     r0,r4,#1
        0x00000950:    2103        .!      MOVS     r1,#3
        0x00000952:    9400        ..      STR      r4,[sp,#0]
        0x00000954:    f7fffc82    ....    BL       __aeabi_idiv ; 0x25c
        0x00000958:    1c49        I.      ADDS     r1,r1,#1
        0x0000095a:    0048        H.      LSLS     r0,r1,#1
        0x0000095c:    1828        (.      ADDS     r0,r5,r0
        0x0000095e:    19c1        ..      ADDS     r1,r0,r7
        0x00000960:    4a0a        .J      LDR      r2,[pc,#40] ; [0x98c] = 0x200001e0
        0x00000962:    2028        (       MOVS     r0,#0x28
        0x00000964:    4370        pC      MULS     r0,r6,r0
        0x00000966:    19c0        ..      ADDS     r0,r0,r7
        0x00000968:    4b0b        .K      LDR      r3,[pc,#44] ; [0x998] = 0x200000a0
        0x0000096a:    5c18        .\      LDRB     r0,[r3,r0]
        0x0000096c:    5450        PT      STRB     r0,[r2,r1]
        0x0000096e:    1c78        x.      ADDS     r0,r7,#1
        0x00000970:    b2c7        ..      UXTB     r7,r0
        0x00000972:    2f28        (/      CMP      r7,#0x28
        0x00000974:    dbdd        ..      BLT      0x932 ; LoadImg + 202
        0x00000976:    1c70        p.      ADDS     r0,r6,#1
        0x00000978:    e000        ..      B        0x97c ; LoadImg + 276
        0x0000097a:    e003        ..      B        0x984 ; LoadImg + 284
        0x0000097c:    b2c6        ..      UXTB     r6,r0
        0x0000097e:    2e04        ..      CMP      r6,#4
        0x00000980:    dbd5        ..      BLT      0x92e ; LoadImg + 198
        0x00000982:    e000        ..      B        0x986 ; LoadImg + 286
        0x00000984:    bf00        ..      NOP      
        0x00000986:    bf00        ..      NOP      
        0x00000988:    bdfe        ..      POP      {r1-r7,pc}
    $d
        0x0000098a:    0000        ..      DCW    0
        0x0000098c:    200001e0    ...     DCD    536871392
        0x00000990:    20000140    @..     DCD    536871232
        0x00000994:    20000000    ...     DCD    536870912
        0x00000998:    200000a0    ...     DCD    536871072
    $t
    i.OpenKeyPad
    OpenKeyPad
        0x0000099c:    b510        ..      PUSH     {r4,lr}
        0x0000099e:    2400        .$      MOVS     r4,#0
        0x000009a0:    e006        ..      B        0x9b0 ; OpenKeyPad + 20
        0x000009a2:    2203        ."      MOVS     r2,#3
        0x000009a4:    4621        !F      MOV      r1,r4
        0x000009a6:    2000        .       MOVS     r0,#0
        0x000009a8:    f7fffd60    ..`.    BL       DrvGPIO_Open ; 0x46c
        0x000009ac:    1c60        `.      ADDS     r0,r4,#1
        0x000009ae:    b2c4        ..      UXTB     r4,r0
        0x000009b0:    2c06        .,      CMP      r4,#6
        0x000009b2:    dbf6        ..      BLT      0x9a2 ; OpenKeyPad + 6
        0x000009b4:    bd10        ..      POP      {r4,pc}
        0x000009b6:    0000        ..      MOVS     r0,r0
    i.Scankey
    Scankey
        0x000009b8:    b5f8        ..      PUSH     {r3-r7,lr}
        0x000009ba:    481f        .H      LDR      r0,[pc,#124] ; [0xa38] = 0xd28
        0x000009bc:    6800        .h      LDR      r0,[r0,#0]
        0x000009be:    9000        ..      STR      r0,[sp,#0]
        0x000009c0:    2400        .$      MOVS     r4,#0
        0x000009c2:    e034        4.      B        0xa2e ; Scankey + 118
        0x000009c4:    4668        hF      MOV      r0,sp
        0x000009c6:    5d06        .]      LDRB     r6,[r0,r4]
        0x000009c8:    2500        .%      MOVS     r5,#0
        0x000009ca:    e00f        ..      B        0x9ec ; Scankey + 52
        0x000009cc:    07f0        ..      LSLS     r0,r6,#31
        0x000009ce:    0fc0        ..      LSRS     r0,r0,#31
        0x000009d0:    2801        .(      CMP      r0,#1
        0x000009d2:    d104        ..      BNE      0x9de ; Scankey + 38
        0x000009d4:    4629        )F      MOV      r1,r5
        0x000009d6:    2000        .       MOVS     r0,#0
        0x000009d8:    f7fffd84    ....    BL       DrvGPIO_SetBit ; 0x4e4
        0x000009dc:    e003        ..      B        0x9e6 ; Scankey + 46
        0x000009de:    4629        )F      MOV      r1,r5
        0x000009e0:    2000        .       MOVS     r0,#0
        0x000009e2:    f7fffd19    ....    BL       DrvGPIO_ClrBit ; 0x418
        0x000009e6:    1076        v.      ASRS     r6,r6,#1
        0x000009e8:    1c68        h.      ADDS     r0,r5,#1
        0x000009ea:    b2c5        ..      UXTB     r5,r0
        0x000009ec:    2d06        .-      CMP      r5,#6
        0x000009ee:    dbed        ..      BLT      0x9cc ; Scankey + 20
        0x000009f0:    f000f8f2    ....    BL       delay ; 0xbd8
        0x000009f4:    2103        .!      MOVS     r1,#3
        0x000009f6:    2000        .       MOVS     r0,#0
        0x000009f8:    f7fffd24    ..$.    BL       DrvGPIO_GetBit ; 0x444
        0x000009fc:    2800        .(      CMP      r0,#0
        0x000009fe:    d102        ..      BNE      0xa06 ; Scankey + 78
        0x00000a00:    1c60        `.      ADDS     r0,r4,#1
        0x00000a02:    b2c0        ..      UXTB     r0,r0
        0x00000a04:    bdf8        ..      POP      {r3-r7,pc}
        0x00000a06:    2104        .!      MOVS     r1,#4
        0x00000a08:    2000        .       MOVS     r0,#0
        0x00000a0a:    f7fffd1b    ....    BL       DrvGPIO_GetBit ; 0x444
        0x00000a0e:    2800        .(      CMP      r0,#0
        0x00000a10:    d102        ..      BNE      0xa18 ; Scankey + 96
        0x00000a12:    1d20         .      ADDS     r0,r4,#4
        0x00000a14:    b2c0        ..      UXTB     r0,r0
        0x00000a16:    e7f5        ..      B        0xa04 ; Scankey + 76
        0x00000a18:    2105        .!      MOVS     r1,#5
        0x00000a1a:    2000        .       MOVS     r0,#0
        0x00000a1c:    f7fffd12    ....    BL       DrvGPIO_GetBit ; 0x444
        0x00000a20:    2800        .(      CMP      r0,#0
        0x00000a22:    d102        ..      BNE      0xa2a ; Scankey + 114
        0x00000a24:    1de0        ..      ADDS     r0,r4,#7
        0x00000a26:    b2c0        ..      UXTB     r0,r0
        0x00000a28:    e7ec        ..      B        0xa04 ; Scankey + 76
        0x00000a2a:    1c60        `.      ADDS     r0,r4,#1
        0x00000a2c:    b2c4        ..      UXTB     r4,r0
        0x00000a2e:    2c03        .,      CMP      r4,#3
        0x00000a30:    dbc8        ..      BLT      0x9c4 ; Scankey + 12
        0x00000a32:    2000        .       MOVS     r0,#0
        0x00000a34:    e7e6        ..      B        0xa04 ; Scankey + 76
    $d
        0x00000a36:    0000        ..      DCW    0
        0x00000a38:    00000d28    (...    DCD    3368
    $t
    i.SetPACA
    SetPACA
        0x00000a3c:    4a3b        ;J      LDR      r2,[pc,#236] ; [0xb2c] = 0x200005ec
        0x00000a3e:    68d2        .h      LDR      r2,[r2,#0xc]
        0x00000a40:    6892        .h      LDR      r2,[r2,#8]
        0x00000a42:    0892        ..      LSRS     r2,r2,#2
        0x00000a44:    0092        ..      LSLS     r2,r2,#2
        0x00000a46:    1c52        R.      ADDS     r2,r2,#1
        0x00000a48:    4b38        8K      LDR      r3,[pc,#224] ; [0xb2c] = 0x200005ec
        0x00000a4a:    68db        .h      LDR      r3,[r3,#0xc]
        0x00000a4c:    609a        .`      STR      r2,[r3,#8]
        0x00000a4e:    22b0        ."      MOVS     r2,#0xb0
        0x00000a50:    4302        .C      ORRS     r2,r2,r0
        0x00000a52:    4b36        6K      LDR      r3,[pc,#216] ; [0xb2c] = 0x200005ec
        0x00000a54:    68db        .h      LDR      r3,[r3,#0xc]
        0x00000a56:    621a        .b      STR      r2,[r3,#0x20]
        0x00000a58:    4a34        4J      LDR      r2,[pc,#208] ; [0xb2c] = 0x200005ec
        0x00000a5a:    68d2        .h      LDR      r2,[r2,#0xc]
        0x00000a5c:    6812        .h      LDR      r2,[r2,#0]
        0x00000a5e:    0852        R.      LSRS     r2,r2,#1
        0x00000a60:    0052        R.      LSLS     r2,r2,#1
        0x00000a62:    1c52        R.      ADDS     r2,r2,#1
        0x00000a64:    4b31        1K      LDR      r3,[pc,#196] ; [0xb2c] = 0x200005ec
        0x00000a66:    68db        .h      LDR      r3,[r3,#0xc]
        0x00000a68:    601a        .`      STR      r2,[r3,#0]
        0x00000a6a:    bf00        ..      NOP      
        0x00000a6c:    4a2f        /J      LDR      r2,[pc,#188] ; [0xb2c] = 0x200005ec
        0x00000a6e:    68d2        .h      LDR      r2,[r2,#0xc]
        0x00000a70:    6812        .h      LDR      r2,[r2,#0]
        0x00000a72:    07d2        ..      LSLS     r2,r2,#31
        0x00000a74:    0fd2        ..      LSRS     r2,r2,#31
        0x00000a76:    2a01        .*      CMP      r2,#1
        0x00000a78:    d0f8        ..      BEQ      0xa6c ; SetPACA + 48
        0x00000a7a:    4a2c        ,J      LDR      r2,[pc,#176] ; [0xb2c] = 0x200005ec
        0x00000a7c:    68d2        .h      LDR      r2,[r2,#0xc]
        0x00000a7e:    6892        .h      LDR      r2,[r2,#8]
        0x00000a80:    0892        ..      LSRS     r2,r2,#2
        0x00000a82:    0092        ..      LSLS     r2,r2,#2
        0x00000a84:    4b29        )K      LDR      r3,[pc,#164] ; [0xb2c] = 0x200005ec
        0x00000a86:    68db        .h      LDR      r3,[r3,#0xc]
        0x00000a88:    609a        .`      STR      r2,[r3,#8]
        0x00000a8a:    4a28        (J      LDR      r2,[pc,#160] ; [0xb2c] = 0x200005ec
        0x00000a8c:    68d2        .h      LDR      r2,[r2,#0xc]
        0x00000a8e:    6892        .h      LDR      r2,[r2,#8]
        0x00000a90:    0892        ..      LSRS     r2,r2,#2
        0x00000a92:    0092        ..      LSLS     r2,r2,#2
        0x00000a94:    1c52        R.      ADDS     r2,r2,#1
        0x00000a96:    4b25        %K      LDR      r3,[pc,#148] ; [0xb2c] = 0x200005ec
        0x00000a98:    68db        .h      LDR      r3,[r3,#0xc]
        0x00000a9a:    609a        .`      STR      r2,[r3,#8]
        0x00000a9c:    110a        ..      ASRS     r2,r1,#4
        0x00000a9e:    2310        .#      MOVS     r3,#0x10
        0x00000aa0:    431a        .C      ORRS     r2,r2,r3
        0x00000aa2:    4b22        "K      LDR      r3,[pc,#136] ; [0xb2c] = 0x200005ec
        0x00000aa4:    68db        .h      LDR      r3,[r3,#0xc]
        0x00000aa6:    621a        .b      STR      r2,[r3,#0x20]
        0x00000aa8:    4a20         J      LDR      r2,[pc,#128] ; [0xb2c] = 0x200005ec
        0x00000aaa:    68d2        .h      LDR      r2,[r2,#0xc]
        0x00000aac:    6812        .h      LDR      r2,[r2,#0]
        0x00000aae:    0852        R.      LSRS     r2,r2,#1
        0x00000ab0:    0052        R.      LSLS     r2,r2,#1
        0x00000ab2:    1c52        R.      ADDS     r2,r2,#1
        0x00000ab4:    4b1d        .K      LDR      r3,[pc,#116] ; [0xb2c] = 0x200005ec
        0x00000ab6:    68db        .h      LDR      r3,[r3,#0xc]
        0x00000ab8:    601a        .`      STR      r2,[r3,#0]
        0x00000aba:    bf00        ..      NOP      
        0x00000abc:    4a1b        .J      LDR      r2,[pc,#108] ; [0xb2c] = 0x200005ec
        0x00000abe:    68d2        .h      LDR      r2,[r2,#0xc]
        0x00000ac0:    6812        .h      LDR      r2,[r2,#0]
        0x00000ac2:    07d2        ..      LSLS     r2,r2,#31
        0x00000ac4:    0fd2        ..      LSRS     r2,r2,#31
        0x00000ac6:    2a01        .*      CMP      r2,#1
        0x00000ac8:    d0f8        ..      BEQ      0xabc ; SetPACA + 128
        0x00000aca:    4a18        .J      LDR      r2,[pc,#96] ; [0xb2c] = 0x200005ec
        0x00000acc:    68d2        .h      LDR      r2,[r2,#0xc]
        0x00000ace:    6892        .h      LDR      r2,[r2,#8]
        0x00000ad0:    0892        ..      LSRS     r2,r2,#2
        0x00000ad2:    0092        ..      LSLS     r2,r2,#2
        0x00000ad4:    4b15        .K      LDR      r3,[pc,#84] ; [0xb2c] = 0x200005ec
        0x00000ad6:    68db        .h      LDR      r3,[r3,#0xc]
        0x00000ad8:    609a        .`      STR      r2,[r3,#8]
        0x00000ada:    4a14        .J      LDR      r2,[pc,#80] ; [0xb2c] = 0x200005ec
        0x00000adc:    68d2        .h      LDR      r2,[r2,#0xc]
        0x00000ade:    6892        .h      LDR      r2,[r2,#8]
        0x00000ae0:    0892        ..      LSRS     r2,r2,#2
        0x00000ae2:    0092        ..      LSLS     r2,r2,#2
        0x00000ae4:    1c52        R.      ADDS     r2,r2,#1
        0x00000ae6:    4b11        .K      LDR      r3,[pc,#68] ; [0xb2c] = 0x200005ec
        0x00000ae8:    68db        .h      LDR      r3,[r3,#0xc]
        0x00000aea:    609a        .`      STR      r2,[r3,#8]
        0x00000aec:    070a        ..      LSLS     r2,r1,#28
        0x00000aee:    0f12        ..      LSRS     r2,r2,#28
        0x00000af0:    4b0e        .K      LDR      r3,[pc,#56] ; [0xb2c] = 0x200005ec
        0x00000af2:    68db        .h      LDR      r3,[r3,#0xc]
        0x00000af4:    621a        .b      STR      r2,[r3,#0x20]
        0x00000af6:    4a0d        .J      LDR      r2,[pc,#52] ; [0xb2c] = 0x200005ec
        0x00000af8:    68d2        .h      LDR      r2,[r2,#0xc]
        0x00000afa:    6812        .h      LDR      r2,[r2,#0]
        0x00000afc:    0852        R.      LSRS     r2,r2,#1
        0x00000afe:    0052        R.      LSLS     r2,r2,#1
        0x00000b00:    1c52        R.      ADDS     r2,r2,#1
        0x00000b02:    4b0a        .K      LDR      r3,[pc,#40] ; [0xb2c] = 0x200005ec
        0x00000b04:    68db        .h      LDR      r3,[r3,#0xc]
        0x00000b06:    601a        .`      STR      r2,[r3,#0]
        0x00000b08:    bf00        ..      NOP      
        0x00000b0a:    4a08        .J      LDR      r2,[pc,#32] ; [0xb2c] = 0x200005ec
        0x00000b0c:    68d2        .h      LDR      r2,[r2,#0xc]
        0x00000b0e:    6812        .h      LDR      r2,[r2,#0]
        0x00000b10:    07d2        ..      LSLS     r2,r2,#31
        0x00000b12:    0fd2        ..      LSRS     r2,r2,#31
        0x00000b14:    2a01        .*      CMP      r2,#1
        0x00000b16:    d0f8        ..      BEQ      0xb0a ; SetPACA + 206
        0x00000b18:    4a04        .J      LDR      r2,[pc,#16] ; [0xb2c] = 0x200005ec
        0x00000b1a:    68d2        .h      LDR      r2,[r2,#0xc]
        0x00000b1c:    6892        .h      LDR      r2,[r2,#8]
        0x00000b1e:    0892        ..      LSRS     r2,r2,#2
        0x00000b20:    0092        ..      LSLS     r2,r2,#2
        0x00000b22:    4b02        .K      LDR      r3,[pc,#8] ; [0xb2c] = 0x200005ec
        0x00000b24:    68db        .h      LDR      r3,[r3,#0xc]
        0x00000b26:    609a        .`      STR      r2,[r3,#8]
        0x00000b28:    4770        pG      BX       lr
    $d
        0x00000b2a:    0000        ..      DCW    0
        0x00000b2c:    200005ec    ...     DCD    536872428
    $t
    i.SystemInit
    SystemInit
        0x00000b30:    4770        pG      BX       lr
        0x00000b32:    0000        ..      MOVS     r0,r0
    i.WriteData
    WriteData
        0x00000b34:    4914        .I      LDR      r1,[pc,#80] ; [0xb88] = 0x200005ec
        0x00000b36:    68c9        .h      LDR      r1,[r1,#0xc]
        0x00000b38:    6889        .h      LDR      r1,[r1,#8]
        0x00000b3a:    0889        ..      LSRS     r1,r1,#2
        0x00000b3c:    0089        ..      LSLS     r1,r1,#2
        0x00000b3e:    1c49        I.      ADDS     r1,r1,#1
        0x00000b40:    4a11        .J      LDR      r2,[pc,#68] ; [0xb88] = 0x200005ec
        0x00000b42:    68d2        .h      LDR      r2,[r2,#0xc]
        0x00000b44:    6091        .`      STR      r1,[r2,#8]
        0x00000b46:    21ff        .!      MOVS     r1,#0xff
        0x00000b48:    3101        .1      ADDS     r1,#1
        0x00000b4a:    4301        .C      ORRS     r1,r1,r0
        0x00000b4c:    4a0e        .J      LDR      r2,[pc,#56] ; [0xb88] = 0x200005ec
        0x00000b4e:    68d2        .h      LDR      r2,[r2,#0xc]
        0x00000b50:    6211        .b      STR      r1,[r2,#0x20]
        0x00000b52:    490d        .I      LDR      r1,[pc,#52] ; [0xb88] = 0x200005ec
        0x00000b54:    68c9        .h      LDR      r1,[r1,#0xc]
        0x00000b56:    6809        .h      LDR      r1,[r1,#0]
        0x00000b58:    0849        I.      LSRS     r1,r1,#1
        0x00000b5a:    0049        I.      LSLS     r1,r1,#1
        0x00000b5c:    1c49        I.      ADDS     r1,r1,#1
        0x00000b5e:    4a0a        .J      LDR      r2,[pc,#40] ; [0xb88] = 0x200005ec
        0x00000b60:    68d2        .h      LDR      r2,[r2,#0xc]
        0x00000b62:    6011        .`      STR      r1,[r2,#0]
        0x00000b64:    bf00        ..      NOP      
        0x00000b66:    4908        .I      LDR      r1,[pc,#32] ; [0xb88] = 0x200005ec
        0x00000b68:    68c9        .h      LDR      r1,[r1,#0xc]
        0x00000b6a:    6809        .h      LDR      r1,[r1,#0]
        0x00000b6c:    07c9        ..      LSLS     r1,r1,#31
        0x00000b6e:    0fc9        ..      LSRS     r1,r1,#31
        0x00000b70:    2901        .)      CMP      r1,#1
        0x00000b72:    d0f8        ..      BEQ      0xb66 ; WriteData + 50
        0x00000b74:    4904        .I      LDR      r1,[pc,#16] ; [0xb88] = 0x200005ec
        0x00000b76:    68c9        .h      LDR      r1,[r1,#0xc]
        0x00000b78:    6889        .h      LDR      r1,[r1,#8]
        0x00000b7a:    0889        ..      LSRS     r1,r1,#2
        0x00000b7c:    0089        ..      LSLS     r1,r1,#2
        0x00000b7e:    4a02        .J      LDR      r2,[pc,#8] ; [0xb88] = 0x200005ec
        0x00000b80:    68d2        .h      LDR      r2,[r2,#0xc]
        0x00000b82:    6091        .`      STR      r1,[r2,#8]
        0x00000b84:    4770        pG      BX       lr
    $d
        0x00000b86:    0000        ..      DCW    0
        0x00000b88:    200005ec    ...     DCD    536872428
    $t
    i.close_seven_segment
    close_seven_segment
        0x00000b8c:    b510        ..      PUSH     {r4,lr}
        0x00000b8e:    2104        .!      MOVS     r1,#4
        0x00000b90:    2002        .       MOVS     r0,#2
        0x00000b92:    f7fffc41    ..A.    BL       DrvGPIO_ClrBit ; 0x418
        0x00000b96:    2105        .!      MOVS     r1,#5
        0x00000b98:    2002        .       MOVS     r0,#2
        0x00000b9a:    f7fffc3d    ..=.    BL       DrvGPIO_ClrBit ; 0x418
        0x00000b9e:    2106        .!      MOVS     r1,#6
        0x00000ba0:    2002        .       MOVS     r0,#2
        0x00000ba2:    f7fffc39    ..9.    BL       DrvGPIO_ClrBit ; 0x418
        0x00000ba6:    2107        .!      MOVS     r1,#7
        0x00000ba8:    2002        .       MOVS     r0,#2
        0x00000baa:    f7fffc35    ..5.    BL       DrvGPIO_ClrBit ; 0x418
        0x00000bae:    bd10        ..      POP      {r4,pc}
    i.clr_all_panel
    clr_all_panel
        0x00000bb0:    b510        ..      PUSH     {r4,lr}
        0x00000bb2:    2400        .$      MOVS     r4,#0
        0x00000bb4:    2100        .!      MOVS     r1,#0
        0x00000bb6:    4608        .F      MOV      r0,r1
        0x00000bb8:    f7ffff40    ..@.    BL       SetPACA ; 0xa3c
        0x00000bbc:    bf00        ..      NOP      
        0x00000bbe:    e003        ..      B        0xbc8 ; clr_all_panel + 24
        0x00000bc0:    2000        .       MOVS     r0,#0
        0x00000bc2:    f7ffffb7    ....    BL       WriteData ; 0xb34
        0x00000bc6:    1c64        d.      ADDS     r4,r4,#1
        0x00000bc8:    2021        !       MOVS     r0,#0x21
        0x00000bca:    0140        @.      LSLS     r0,r0,#5
        0x00000bcc:    4284        .B      CMP      r4,r0
        0x00000bce:    dbf7        ..      BLT      0xbc0 ; clr_all_panel + 16
        0x00000bd0:    200f        .       MOVS     r0,#0xf
        0x00000bd2:    f7ffffaf    ....    BL       WriteData ; 0xb34
        0x00000bd6:    bd10        ..      POP      {r4,pc}
    i.delay
    delay
        0x00000bd8:    2000        .       MOVS     r0,#0
        0x00000bda:    e000        ..      B        0xbde ; delay + 6
        0x00000bdc:    1c40        @.      ADDS     r0,r0,#1
        0x00000bde:    217d        }!      MOVS     r1,#0x7d
        0x00000be0:    00c9        ..      LSLS     r1,r1,#3
        0x00000be2:    4288        .B      CMP      r0,r1
        0x00000be4:    dbfa        ..      BLT      0xbdc ; delay + 4
        0x00000be6:    4770        pG      BX       lr
    i.draw_LCD
    draw_LCD
        0x00000be8:    b5f8        ..      PUSH     {r3-r7,lr}
        0x00000bea:    4607        .F      MOV      r7,r0
        0x00000bec:    2640        @&      MOVS     r6,#0x40
        0x00000bee:    2080        .       MOVS     r0,#0x80
        0x00000bf0:    9000        ..      STR      r0,[sp,#0]
        0x00000bf2:    2400        .$      MOVS     r4,#0
        0x00000bf4:    2500        .%      MOVS     r5,#0
        0x00000bf6:    bf00        ..      NOP      
        0x00000bf8:    e014        ..      B        0xc24 ; draw_LCD + 60
        0x00000bfa:    2400        .$      MOVS     r4,#0
        0x00000bfc:    e00b        ..      B        0xc16 ; draw_LCD + 46
        0x00000bfe:    2281        ."      MOVS     r2,#0x81
        0x00000c00:    1b52        R.      SUBS     r2,r2,r5
        0x00000c02:    b2d1        ..      UXTB     r1,r2
        0x00000c04:    b2e0        ..      UXTB     r0,r4
        0x00000c06:    f7ffff19    ....    BL       SetPACA ; 0xa3c
        0x00000c0a:    00e9        ..      LSLS     r1,r5,#3
        0x00000c0c:    1909        ..      ADDS     r1,r1,r4
        0x00000c0e:    5c78        x\      LDRB     r0,[r7,r1]
        0x00000c10:    f7ffff90    ....    BL       WriteData ; 0xb34
        0x00000c14:    1c64        d.      ADDS     r4,r4,#1
        0x00000c16:    17f1        ..      ASRS     r1,r6,#31
        0x00000c18:    0f49        I.      LSRS     r1,r1,#29
        0x00000c1a:    1989        ..      ADDS     r1,r1,r6
        0x00000c1c:    10c9        ..      ASRS     r1,r1,#3
        0x00000c1e:    42a1        .B      CMP      r1,r4
        0x00000c20:    dced        ..      BGT      0xbfe ; draw_LCD + 22
        0x00000c22:    1c6d        m.      ADDS     r5,r5,#1
        0x00000c24:    9800        ..      LDR      r0,[sp,#0]
        0x00000c26:    4285        .B      CMP      r5,r0
        0x00000c28:    dbe7        ..      BLT      0xbfa ; draw_LCD + 18
        0x00000c2a:    bdf8        ..      POP      {r3-r7,pc}
    i.main
    main
        0x00000c2c:    bf00        ..      NOP      
        0x00000c2e:    2664        d&      MOVS     r6,#0x64
        0x00000c30:    f7fffcd0    ....    BL       GetRand ; 0x5d4
        0x00000c34:    4604        .F      MOV      r4,r0
        0x00000c36:    2059        Y       MOVS     r0,#0x59
        0x00000c38:    4927        'I      LDR      r1,[pc,#156] ; [0xcd8] = 0x50000100
        0x00000c3a:    6008        .`      STR      r0,[r1,#0]
        0x00000c3c:    2016        .       MOVS     r0,#0x16
        0x00000c3e:    6008        .`      STR      r0,[r1,#0]
        0x00000c40:    2088        .       MOVS     r0,#0x88
        0x00000c42:    6008        .`      STR      r0,[r1,#0]
        0x00000c44:    4825        %H      LDR      r0,[pc,#148] ; [0xcdc] = 0x50000200
        0x00000c46:    6800        .h      LDR      r0,[r0,#0]
        0x00000c48:    2102        .!      MOVS     r1,#2
        0x00000c4a:    4388        .C      BICS     r0,r0,r1
        0x00000c4c:    1c80        ..      ADDS     r0,r0,#2
        0x00000c4e:    4923        #I      LDR      r1,[pc,#140] ; [0xcdc] = 0x50000200
        0x00000c50:    6008        .`      STR      r0,[r1,#0]
        0x00000c52:    4608        .F      MOV      r0,r1
        0x00000c54:    6800        .h      LDR      r0,[r0,#0]
        0x00000c56:    0840        @.      LSRS     r0,r0,#1
        0x00000c58:    0040        @.      LSLS     r0,r0,#1
        0x00000c5a:    1c40        @.      ADDS     r0,r0,#1
        0x00000c5c:    6008        .`      STR      r0,[r1,#0]
        0x00000c5e:    4608        .F      MOV      r0,r1
        0x00000c60:    6900        .i      LDR      r0,[r0,#0x10]
        0x00000c62:    08c0        ..      LSRS     r0,r0,#3
        0x00000c64:    00c0        ..      LSLS     r0,r0,#3
        0x00000c66:    6108        .a      STR      r0,[r1,#0x10]
        0x00000c68:    2000        .       MOVS     r0,#0
        0x00000c6a:    491b        .I      LDR      r1,[pc,#108] ; [0xcd8] = 0x50000100
        0x00000c6c:    6008        .`      STR      r0,[r1,#0]
        0x00000c6e:    f7fffcd5    ....    BL       Initial_panel ; 0x61c
        0x00000c72:    f7ffff9d    ....    BL       clr_all_panel ; 0xbb0
        0x00000c76:    f7fffe91    ....    BL       OpenKeyPad ; 0x99c
        0x00000c7a:    f7fffcb5    ....    BL       InitData ; 0x5e8
        0x00000c7e:    e029        ).      B        0xcd4 ; main + 168
        0x00000c80:    2e00        ..      CMP      r6,#0
        0x00000c82:    d001        ..      BEQ      0xc88 ; main + 92
        0x00000c84:    1e76        v.      SUBS     r6,r6,#1
        0x00000c86:    e00c        ..      B        0xca2 ; main + 118
        0x00000c88:    b2e1        ..      UXTB     r1,r4
        0x00000c8a:    2000        .       MOVS     r0,#0
        0x00000c8c:    f7fffdec    ....    BL       LoadImg ; 0x868
        0x00000c90:    f7fffca0    ....    BL       GetRand ; 0x5d4
        0x00000c94:    4604        .F      MOV      r4,r0
        0x00000c96:    b2e1        ..      UXTB     r1,r4
        0x00000c98:    2001        .       MOVS     r0,#1
        0x00000c9a:    f7fffde5    ....    BL       LoadImg ; 0x868
        0x00000c9e:    bf00        ..      NOP      
        0x00000ca0:    2664        d&      MOVS     r6,#0x64
        0x00000ca2:    f7fffe89    ....    BL       Scankey ; 0x9b8
        0x00000ca6:    b245        E.      SXTB     r5,r0
        0x00000ca8:    1ee8        ..      SUBS     r0,r5,#3
        0x00000caa:    42a0        .B      CMP      r0,r4
        0x00000cac:    d104        ..      BNE      0xcb8 ; main + 140
        0x00000cae:    b2e1        ..      UXTB     r1,r4
        0x00000cb0:    2002        .       MOVS     r0,#2
        0x00000cb2:    f7fffdd9    ....    BL       LoadImg ; 0x868
        0x00000cb6:    bf00        ..      NOP      
        0x00000cb8:    f7ffff68    ..h.    BL       close_seven_segment ; 0xb8c
        0x00000cbc:    b2e9        ..      UXTB     r1,r5
        0x00000cbe:    2000        .       MOVS     r0,#0
        0x00000cc0:    f000f812    ....    BL       show_seven_segment ; 0xce8
        0x00000cc4:    f7fffdb6    ....    BL       LoadBuf ; 0x834
        0x00000cc8:    4805        .H      LDR      r0,[pc,#20] ; [0xce0] = 0x2000060c
        0x00000cca:    f7ffff8d    ....    BL       draw_LCD ; 0xbe8
        0x00000cce:    4805        .H      LDR      r0,[pc,#20] ; [0xce4] = 0x1388
        0x00000cd0:    f7fffb9b    ....    BL       Delay ; 0x40a
        0x00000cd4:    e7d4        ..      B        0xc80 ; main + 84
    $d
        0x00000cd6:    0000        ..      DCW    0
        0x00000cd8:    50000100    ...P    DCD    1342177536
        0x00000cdc:    50000200    ...P    DCD    1342177792
        0x00000ce0:    2000060c    ...     DCD    536872460
        0x00000ce4:    00001388    ....    DCD    5000
    $t
    i.show_seven_segment
    show_seven_segment
        0x00000ce8:    b5f8        ..      PUSH     {r3-r7,lr}
        0x00000cea:    4605        .F      MOV      r5,r0
        0x00000cec:    460f        .F      MOV      r7,r1
        0x00000cee:    480d        .H      LDR      r0,[pc,#52] ; [0xd24] = 0x200005e0
        0x00000cf0:    5dc6        .]      LDRB     r6,[r0,r7]
        0x00000cf2:    2400        .$      MOVS     r4,#0
        0x00000cf4:    e00f        ..      B        0xd16 ; show_seven_segment + 46
        0x00000cf6:    07f0        ..      LSLS     r0,r6,#31
        0x00000cf8:    0fc0        ..      LSRS     r0,r0,#31
        0x00000cfa:    2801        .(      CMP      r0,#1
        0x00000cfc:    d104        ..      BNE      0xd08 ; show_seven_segment + 32
        0x00000cfe:    4621        !F      MOV      r1,r4
        0x00000d00:    2004        .       MOVS     r0,#4
        0x00000d02:    f7fffbef    ....    BL       DrvGPIO_SetBit ; 0x4e4
        0x00000d06:    e003        ..      B        0xd10 ; show_seven_segment + 40
        0x00000d08:    4621        !F      MOV      r1,r4
        0x00000d0a:    2004        .       MOVS     r0,#4
        0x00000d0c:    f7fffb84    ....    BL       DrvGPIO_ClrBit ; 0x418
        0x00000d10:    1076        v.      ASRS     r6,r6,#1
        0x00000d12:    1c60        `.      ADDS     r0,r4,#1
        0x00000d14:    b2c4        ..      UXTB     r4,r0
        0x00000d16:    2c08        .,      CMP      r4,#8
        0x00000d18:    dbed        ..      BLT      0xcf6 ; show_seven_segment + 14
        0x00000d1a:    1d29        ).      ADDS     r1,r5,#4
        0x00000d1c:    2002        .       MOVS     r0,#2
        0x00000d1e:    f7fffbe1    ....    BL       DrvGPIO_SetBit ; 0x4e4
        0x00000d22:    bdf8        ..      POP      {r3-r7,pc}
    $d
        0x00000d24:    200005e0    ...     DCD    536872416
    $d.realdata
    .constdata
        0x00000d28:    003e3d3b    ;=>.    DCD    4078907
    Region$$Table$$Base
        0x00000d2c:    00000d4c    L...    DCD    3404
        0x00000d30:    20000000    ...     DCD    536870912
        0x00000d34:    0000060c    ....    DCD    1548
        0x00000d38:    00000104    ....    DCD    260
        0x00000d3c:    00001358    X...    DCD    4952
        0x00000d40:    2000060c    ...     DCD    536872460
        0x00000d44:    00000944    D...    DCD    2372
        0x00000d48:    00000120     ...    DCD    288
    Region$$Table$$Limit

** Section #2 'ER_RW' (SHT_PROGBITS) [SHF_ALLOC + SHF_WRITE]
    Size   : 1548 bytes (alignment 4)
    Address: 0x20000000


** Section #3 'ER_ZI' (SHT_NOBITS) [SHF_ALLOC + SHF_WRITE]
    Size   : 2372 bytes (alignment 8)
    Address: 0x2000060c


** Section #4 '.debug_abbrev' (SHT_PROGBITS)
    Size   : 1476 bytes


** Section #5 '.debug_frame' (SHT_PROGBITS)
    Size   : 1228 bytes


** Section #6 '.debug_info' (SHT_PROGBITS)
    Size   : 108240 bytes


** Section #7 '.debug_line' (SHT_PROGBITS)
    Size   : 4804 bytes


** Section #8 '.debug_loc' (SHT_PROGBITS)
    Size   : 1544 bytes


** Section #9 '.debug_macinfo' (SHT_PROGBITS)
    Size   : 141352 bytes


** Section #10 '.debug_pubnames' (SHT_PROGBITS)
    Size   : 1035 bytes


** Section #11 '.symtab' (SHT_SYMTAB)
    Size   : 5600 bytes (alignment 4)
    String table #12 '.strtab'
    Last local symbol no. 213


** Section #12 '.strtab' (SHT_STRTAB)
    Size   : 4908 bytes


** Section #13 '.note' (SHT_NOTE)
    Size   : 28 bytes (alignment 4)


** Section #14 '.comment' (SHT_PROGBITS)
    Size   : 4660 bytes


** Section #15 '.shstrtab' (SHT_STRTAB)
    Size   : 156 bytes


